(lp0
(dp1
V\u6000
p2
I1063
sV\u6302
p3
I1144
sV\u8000
p4
I1736
sV\u6d89
p5
I761
sV\u8c08
p6
I810
sV\u4f0a
p7
I808
sS'UUUUU0'
p8
I2756
sV\u968f
p9
I480
sV\u8302
p10
I2565
sV\u6297
p11
I961
sV\u8116
p12
I2216
sV\u6599
p13
I618
sV\u5146
p14
I2632
sV\u7eca
p15
I3382
sV\u4e9f
p16
I2757
sV\u6d1e
p17
I1305
sV\u9020
p18
I384
sV\u77a5
p19
I3709
sV\u7624
p20
I2217
sV\u9edd
p21
I3710
sV\u7f2a
p22
I3173
sV\u822c
p23
I1266
sV\u86af
p24
I3383
sV\u6f5c
p25
I1354
sV\u6cb3
p26
I566
sV\u6b32
p27
I1436
sV\u4fb5
p28
I1277
sV\u4e34
p29
I614
sV\u72b7
p30
I3711
sV\u7136
p31
I209
sV\u75b9
p32
I3712
sV\u5438
p33
I766
sV\u573a
p34
I76
sV\u5bbd
p35
I1201
sV\u5a3c
p36
I3000
sV\u7ebf
p37
I297
sV\u6342
p38
I3174
sV\u53cd
p39
I394
sV\u724c
p40
I519
sV\u76cf
p41
I2758
sV\u79d1
p42
I325
sV\u7b52
p43
I2218
sV\u568f
p44
I3384
sV\u82d7
p45
I1654
sV\u5eb8
p46
I2430
sV\u87d1
p47
I2873
sV\u62e5
p48
I916
sV\u7a97
p49
I1404
sV\u723d
p50
I2069
sV\u8bdd
p51
I389
sV\u4edf
p52
I3175
sV\u8d5e
p53
I1296
sV\u51e1
p54
I1655
sV\u74e3
p55
I3001
sV\u5362
p56
I1682
sV\u77e5
p57
I291
sV\u9664
p58
I608
sS'UUUUUU'
p59
I757
sV\u60eb
p60
I3189
sV\u7f6a
p61
I899
sV\u63ed
p62
I1223
sV\u626c
p63
I1224
sV\u8870
p64
I1931
sV\u6cf3
p65
I1437
sV\u5176
p66
I120
sV\u95f9
p67
I1328
sV\u9a7c
p68
I3713
sV\u7eff
p69
I954
sV\u6e14
p70
I1556
sV\u6101
p71
I2030
sV\u8403
p72
I2654
sV\u692d
p73
I3714
sV\u8986
p74
I1526
sS'UU0U0'
p75
I3002
sV\u6c88
p76
I1245
sV\u500b
p77
I3715
sS'UUUUU000'
p78
I3716
sV\u530d
p79
I3385
sV\u6e43
p80
I2566
sV\u776c
p81
I3386
sV\u9890
p82
I3003
sV\u5c13
p83
I3717
sV\u5f15
p84
I415
sV\u5e94
p85
I217
sV\u679a
p86
I2031
sS'UU00'
p87
I2655
sV\u5121
p88
I3718
sV\u53a2
p89
I2142
sV\u5047
p90
I369
sV\u5d29
p91
I2319
sV\u9ca8
p92
I2759
sV\u5faa
p93
I1737
sV\u832d
p94
I3719
sV\u82ac
p95
I1718
sV\u662f
p96
I8
sV\u85ae
p97
I3720
sV\u68b0
p98
I2267
sV\u8bb2
p99
I894
sV\u9e9f
p100
I3721
sV\u5237
p101
I1225
sV\u51b6
p102
I3387
sS'UUUUUUUUUUUUUUUUUUUUUUU'
p103
I3004
sV\u54b8
p104
I2143
sV\u9abc
p105
I3005
sV\u9e3f
p106
I2000
sV\u80c0
p107
I2001
sV\u7409
p108
I2973
sV\u89c6
p109
I274
sV\u4fca
p110
I1969
sV\u55ce
p111
I3723
sV\u5951
p112
I2178
sV\u5bd2
p113
I1410
sV\u5f55
p114
I777
sV\u9ed4
p115
I3388
sV\u5178
p116
I1000
sV\u6559
p117
I310
sV\u64d8
p118
I3724
sV\u67da
p119
I2431
sV\u4e4d
p120
I3368
sV\u8dfb
p121
I2874
sV\u4e5f
p122
I80
sV\u6dde
p123
I3389
sS'00U0UUUUUUU00'
p124
I3960
sV\u90ac
p125
I4061
sV\u827e
p126
I1472
sV\u56e4
p127
I2760
sV\u79e6
p128
I1899
sV\u5d69
p129
I2875
sV\u5ce8
p130
I2761
sV\u5fea
p131
I3725
sV\u62ec
p132
I861
sV\u666f
p133
I378
sV\u8f7c
p134
I3726
sV\u71a0
p135
I2799
sS'UUUUUUUUUUUUUUUUU'
p136
I2876
sV\u6ef4
p137
I1567
sV\u51f6
p138
I1800
sV\u94f8
p139
I3006
sV\u987b
p140
I888
sV\u57fa
p141
I304
sV\u5b7d
p142
I3727
sV\u5e7f
p143
I216
sV\u5dfe
p144
I2105
sV\u6401
p145
I3205
sV\u6f2a
p146
I3177
sV\u6c89
p147
I1134
sV\u918b
p148
I2268
sV\u4e0a
p149
I15
sV\u8006
p150
I3917
sV\u540e
p151
I41
sV\u9891
p152
I634
sV\u9910
p153
I696
sV\u8682
p154
I3390
sV\u5e95
p155
I523
sV\u7f14
p156
I3178
sV\u7ed8
p157
I1801
sV\u8499
p158
I1037
sV\u6518
p159
I3179
sV\u699b
p160
I3728
sV\u952e
p161
I1329
sV\u8f9f
p162
I2144
sV\u7384
p163
I3601
sV\u90a1
p164
I3180
sV\u998f
p165
I3729
sS'<unk>'
p166
I4362
sV\u7826
p167
I3730
sV\u5ca9
p168
I1900
sV\u915d
p169
I2639
sV\u82ad
p170
I2567
sS'UUUUUUUUUU0'
p171
I2903
sV\u67af
p172
I2877
sV\u60dc
p173
I1612
sV\u88b1
p174
I2762
sV\u6930
p175
I3391
sV\u8db3
p176
I549
sV\u4eb5
p177
I3182
sV\u4f34
p178
I778
sV\u75d2
p179
I3007
sV\u9988
p180
I2656
sV\u7538
p181
I1857
sV\u79bb
p182
I510
sV\u9b3c
p183
I2032
sV\u5c3e
p184
I1343
sV\u80c1
p185
I1489
sV\u707f
p186
I2480
sS'UUUUUUUUUUUUUUUUUUUUUUUUUUUUUUUUUUUUUUUUU'
p187
I3731
sV\u6846
p188
I1901
sV\u6cc9
p189
I1593
sV\u8d48
p190
I3732
sV\u51cb
p191
I2763
sV\u8e4a
p192
I3733
sV\u7f69
p193
I2269
sS'UUUUUUUUUU'
p194
I1379
sV\u7ed5
p195
I1490
sV\u69db
p196
I2145
sV\u665a
p197
I444
sV\u8fdf
p198
I1634
sV\u90e1
p199
I3008
sV\u75e3
p200
I2568
sV\u7262
p201
I2320
sV\u5764
p202
I2764
sV\u729f
p203
I3672
sV\u62ed
p204
I3392
sV\u67ef
p205
I2270
sV\u7a3c
p206
I3734
sV\u68f1
p207
I2569
sV\u8df3
p208
I1054
sV\u8f74
p209
I2570
sV\u53f7
p210
I448
sV\u5076
p211
I1613
sV\u5578
p212
I2657
sV\u79fb
p213
I846
sV\u8d3e
p214
I2271
sV\u6001
p215
I524
sV\u8180
p216
I2481
sV\u8282
p217
I294
sV\u6784
p218
I650
sV\u6d88
p219
I243
sV\u510b
p220
I2571
sV\u538c
p221
I2321
sV\u970f
p222
I3735
sV\u548e
p223
I3393
sV\u5811
p224
I3736
sV\u5a92
p225
I550
sV\u5e15
p226
I1902
sV\u8317
p227
I3737
sV\u8096
p228
I2322
sV\u6fee
p229
I3183
sV\u4f1f
p230
I1256
sV\u5021
p231
I1802
sV\u51a0
p232
I1080
sV\u9523
p233
I3009
sV\u98a6
p234
I3738
sV\u6e1d
p235
I2375
sV\u612b
p236
I3739
sV\u7eaa
p237
I532
sV\u63ac
p238
I3394
sV\u672f
p239
I490
sV\u8f9c
p240
I2572
sV\u8e35
p241
I3185
sV\u5439
p242
I1970
sV\u7a3d
p243
I3395
sV\u540f
p244
I3740
sV\u7cbe
p245
I588
sV\u81c0
p246
I2878
sV\u8543
p247
I3396
sV\u7699
p248
I3552
sV\u67c4
p249
I3397
sV\u6b47
p250
I2879
sV\u88c6
p251
I3186
sV\u6c49
p252
I700
sV\u73cd
p253
I1267
sV\u514b
p254
I344
sV\u4eca
p255
I77
sV\u524d
p256
I59
sV\u53cc
p257
I639
sV\u574f
p258
I1025
sV\u94ce
p259
I3742
sV\u5851
p260
I1438
sV\u59d0
p261
I1073
sV\u5e55
p262
I866
sV\u7fd4
p263
I1696
sV\u80d6
p264
I1355
sV\u6e4d
p265
I3187
sV\u545c
p266
I3010
sV\u6cde
p267
I3398
sV\u51e0
p268
I345
sV\u5de8
p269
I917
sV\u7eea
p270
I1491
sV\u626d
p271
I2658
sV\u676f
p272
I1081
sV\u5377
p273
I1330
sV\u99a8
p274
I2150
sV\u95f8
p275
I1858
sV\u56fa
p276
I1423
sV\u5bfc
p277
I354
sV\u9f7f
p278
I2219
sS'00UU'
p279
I3093
sV\u8102
p280
I1656
sV\u8404
p281
I1635
sV\u8f89
p282
I1568
sV\u4e08
p283
I1453
sV\u518d
p284
I319
sV\u4f83
p285
I2432
sV\u548f
p286
I3011
sS'0000U00U00'
p287
I3745
sV\u5e93
p288
I1038
sV\u7802
p289
I2880
sV\u5c14
p290
I382
sS'U00UUUU'
p291
I3746
sV\u6316
p292
I1738
sV\u70ae
p293
I1511
sV\u6c9f
p294
I1356
sV\u4f1e
p295
I2272
sV\u5220
p296
I2179
sV\u56a3
p297
I2881
sV\u9122
p298
I3747
sV\u78a7
p299
I2180
sV\u7b26
p300
I1315
sV\u7bdd
p301
I3399
sV\u62ab
p302
I1657
sV\u5206
p303
I82
sV\u668c
p304
I3748
sV\u4eb3
p305
I3749
sV\u8eb2
p306
I2323
sV\u6db5
p307
I2002
sV\u6c34
p308
I140
sV\u8708
p309
I3750
sV\u753a
p310
I3751
sV\u79bd
p311
I2573
sV\u7bb4
p312
I3400
sV\u851a
p313
I3986
sV\u6240
p314
I180
sV\u65c5
p315
I359
sV\u6444
p316
I811
sV\u4e48
p317
I178
sV\u52cb
p318
I3012
sV\u6d4a
p319
I2882
sV\u91cd
p320
I116
sV\u704c
p321
I2247
sV\u574e
p322
I2220
sV\u7ed3
p323
I351
sV\u6e0e
p324
I3401
sV\u5310
p325
I3487
sV\u8d3b
p326
I3752
sV\u5b66
p327
I42
sV\u7fe9
p328
I3402
sV\u9e3d
p329
I2226
sV\u81ed
p330
I2376
sV\u7f79
p331
I3188
sV\u5a7a
p332
I3556
sV\u8bf1
p333
I1859
sV\u5de9
p334
I2574
sV\u9012
p335
I1492
sV\u8df5
p336
I1697
sV\u6c74
p337
I3753
sV\u70f7
p338
I3754
sV\u57f9
p339
I1145
sV\u79fd
p340
I2883
sV\u6301
p341
I263
sV\u6280
p342
I462
sV\u5f6a
p343
I2377
sV\u6807
p344
I374
sV\u4e88
p345
I1202
sV\u8d8a
p346
I379
sV\u740f
p347
I3403
sV\u778e
p348
I2659
sV\u7b11
p349
I843
sV\u9992
p350
I2692
sV\u96ef
p351
I2694
sV\u8017
p352
I1825
sV\u5f18
p353
I2766
sS'0000U00'
p354
I2592
sV\u6c1f
p355
I3013
sV\u8f9e
p356
I2034
sV\u52a0
p357
I147
sV\u7525
p358
I3755
sV\u7f29
p359
I1167
sV\u60ac
p360
I1698
sS'0000U000'
p361
I3756
sV\u8d35
p362
I931
sV\u7a3b
p363
I2273
sV\u5c3f
p364
I1764
sV\u6643
p365
I3190
sV\u61c2
p366
I1321
sV\u6545
p367
I567
sV\u84c4
p368
I1860
sV\u8bc6
p369
I646
sV\u9176
p370
I3407
sV\u514d
p371
I570
sV\u4fa3
p372
I2379
sV\u57ce
p373
I200
sV\u7b51
p374
I1232
sV\u75f9
p375
I3408
sV\u79d2
p376
I1398
sV\u834f
p377
I3606
sV\u63d6
p378
I3757
sV\u733e
p379
I3758
sV\u6c5f
p380
I321
sV\u8fde
p381
I536
sV\u5361
p382
I585
sV\u72e0
p383
I2182
sV\u7565
p384
I904
sV\u82a5
p385
I3759
sV\u5f69
p386
I885
sV\u626b
p387
I1527
sV\u60ec
p388
I3191
sV\u4e73
p389
I1658
sV\u8d75
p390
I1739
sV\u5eff
p391
I3192
sV\u5077
p392
I1151
sV\u53f6
p393
I1514
sV\u7779
p394
I2768
sV\u76f8
p395
I192
sV\u9a7b
p396
I1299
sV\u95fa
p397
I2885
sV\u597d
p398
I91
sV\u9c7f
p399
I2661
sV\u6ec1
p400
I2886
sV\u8783
p401
I2324
sV\u6002
p402
I3760
sV\u6485
p403
I3761
sV\u5a9a
p404
I2662
sV\u4e89
p405
I602
sV\u68ad
p406
I3193
sV\u538b
p407
I699
sV\u8c0a
p408
I1826
sV\u508d
p409
I2433
sV\u7403
p410
I251
sV\u758f
p411
I1903
sV\u960e
p412
I3762
sV\u9a91
p413
I1233
sV\u6382
p414
I3763
sV\u5d14
p415
I2769
sV\u6216
p416
I284
sV\u8f5f
p417
I3962
sV\u8718
p418
I3764
sV\u6e24
p419
I2434
sV\u8d9f
p420
I2663
sV\u52a1
p421
I211
sV\u82b1
p422
I347
sV\u57a3
p423
I3409
sV\u9022
p424
I2183
sV\u94a5
p425
I1971
sV\u5524
p426
I1933
sV\u79a7
p427
I3765
sV\u94b2
p428
I3766
sV\u83ab
p429
I1168
sV\u5986
p430
I1791
sV\u65af
p431
I266
sV\u6fb3
p432
I1152
sV\u8d34
p433
I1039
sV\u51b7
p434
I1099
sV\u5236
p435
I184
sS'00U00'
p436
I1060
sV\u9738
p437
I1862
sV\u793c
p438
I762
sV\u8340
p439
I3768
sV\u5f8a
p440
I3057
sV\u64c5
p441
I2325
sV\u53cb
p442
I226
sV\u714c
p443
I2072
sV\u5b50
p444
I40
sV\u7cd5
p445
I2381
sV\u66d9
p446
I2887
sV\u6bdb
p447
I1096
sS'00U0U'
p448
I1285
sV\u8ddf
p449
I922
sV\u4e5e
p450
I1683
sV\u72e1
p451
I3769
sV\u5360
p452
I788
sV\u77e3
p453
I3410
sV\u5f13
p454
I3323
sV\u54e5
p455
I955
sV\u5564
p456
I1767
sV\u79e7
p457
I3411
sV\u7ee9
p458
I1210
sV\u60ed
p459
I3770
sV\u6c13
p460
I3195
sV\u666e
p461
I603
sV\u8869
p462
I4167
sV\u8ff3
p463
I3771
sV\u6cf5
p464
I3015
sV\u8d74
p465
I1174
sV\u96f9
p466
I2221
sV\u7f15
p467
I3196
sV\u5bfb
p468
I886
sV\u58fd
p469
I3772
sV\u997c
p470
I1569
sV\u6380
p471
I2184
sV\u6405
p472
I2664
sV\u8584
p473
I1768
sV\u4e09
p474
I171
sV\u8f88
p475
I1740
sV\u500d
p476
I1100
sV\u518c
p477
I1424
sV\u550f
p478
I3412
sV\u568e
p479
I3773
sV\u7f13
p480
I1105
sV\u5c15
p481
I3774
sV\u6296
p482
I2770
sV\u6619
p483
I3775
sV\u699c
p484
I1040
sV\u8d1f
p485
I597
sV\u5723
p486
I1411
sV\u90a2
p487
I3776
sV\u7425
p488
I3197
sS'U000U'
p489
I3777
sV\u5927
p490
I13
sV\u7aa6
p491
I2771
sV\u9e29
p492
I3778
sV\u5fa8
p493
I3779
sV\u632b
p494
I2095
sV\u7caa
p495
I2483
sV\u61ac
p496
I3780
sV\u652f
p497
I498
sV\u66ae
p498
I2772
sV\u6a31
p499
I2435
sV\u8bb0
p500
I234
sV\u6f33
p501
I2575
sV\u8db4
p502
I2576
sV\u72b6
p503
I739
sV\u5639
p504
I3781
sS'000000000'
p505
I3782
sV\u9ebe
p506
I3415
sV\u6241
p507
I2961
sV\u6743
p508
I526
sV\u6bbf
p509
I2265
sS'UUUU000000UUUU'
p510
I3783
sV\u60a0
p511
I1769
sV\u4e49
p512
I718
sV\u8fc8
p513
I1528
sV\u94f6
p514
I508
sV\u904d
p515
I1300
sV\u91cc
p516
I114
sV\u754f
p517
I2222
sV\u76ce
p518
I2888
sV\u5bd0
p519
I3784
sV\u5f53
p520
I129
sV\u5c55
p521
I230
sV\u62d6
p522
I1719
sS'00U0UUUUUUUUUUUUUUUUUUUUUUUU'
p523
I4332
sV\u8d5f
p524
I3785
sV\u6ede
p525
I1594
sV\u7261
p526
I2577
sV\u73e0
p527
I1268
sV\u7763
p528
I1306
sV\u8350
p529
I1380
sV\u836b
p530
I3017
sV\u5cea
p531
I3786
sV\u606d
p532
I2889
sV\u86ee
p533
I2223
sV\u4fdd
p534
I220
sV\u4f73
p535
I1055
sV\u5177
p536
I544
sS'UU000U'
p537
I4069
sV\u94fa
p538
I1454
sV\u987d
p539
I2436
sS'00UU00U'
p540
I3788
sV\u6400
p541
I3416
sV\u8083
p542
I1904
sV\u8702
p543
I1741
sV\u9600
p544
I2959
sV\u6808
p545
I2578
sV\u548b
p546
I2275
sV\u978d
p547
I2186
sV\u62ac
p548
I1972
sS'UUUUUU0U'
p549
I2773
sS'UUUUUUUUUUUUUUUUUUUUUUUUUU'
p550
I3791
sV\u5893
p551
I2036
sS'UUUUUUU000'
p552
I4186
sV\u6697
p553
I1169
sV\u4f58
p554
I3792
sV\u8018
p555
I3417
sV\u6c9b
p556
I3018
sV\u631a
p557
I3418
sV\u4f9d
p558
I725
sV\u4e1c
p559
I224
sV\u75a1
p560
I3019
sV\u90a3
p561
I290
sS'UUU0U0'
p562
I2665
sV\u5224
p563
I905
sV\u5ea7
p564
I771
sV\u59a9
p565
I3793
sV\u67ad
p566
I3419
sV\u82af
p567
I1742
sV\u715c
p568
I3420
sV\u94c1
p569
I496
sS'UUUUUUUUUUUUUUUUUUUUUUUUUUU'
p570
I3522
sV\u68b3
p571
I2224
sV\u6bb5
p572
I517
sV\u56b7
p573
I3421
sV\u71b9
p574
I3795
sV\u9038
p575
I2147
sV\u533a
p576
I97
sV\u5fbd
p577
I1246
sV\u5e3c
p578
I3020
sV\u793e
p579
I270
sV\u65c1
p580
I1439
sV\u532e
p581
I3796
sV\u80c3
p582
I1307
sV\u6742
p583
I1112
sV\u83c5
p584
I3422
sV\u7237
p585
I1592
sV\u4ec7
p586
I2731
sV\u6d46
p587
I2666
sV\u89c9
p588
I604
sV\u6848
p589
I356
sV\u764c
p590
I1194
sV\u714e
p591
I2382
sV\u98d3
p592
I2437
sV\u5f52
p593
I1071
sV\u6556
p594
I2891
sV\u8058
p595
I1357
sV\u6cdb
p596
I1529
sV\u7f62
p597
I2148
sV\u8fdd
p598
I783
sV\u695e
p599
I3798
sV\u55e1
p600
I3799
sV\u7460
p601
I3800
sV\u9762
p602
I109
sV\u53e5
p603
I1113
sV\u7ee7
p604
I729
sV\u4e10
p605
I2466
sV\u79e9
p606
I1973
sV\u5b6a
p607
I3801
sV\u5080
p608
I3802
sV\u62ef
p609
I2667
sV\u6df1
p610
I481
sV\u6c70
p611
I2383
sV\u88f3
p612
I3803
sV\u8bf5
p613
I3021
sV\u96f7
p614
I1126
sV\u9576
p615
I3658
sV\u51f9
p616
I3198
sV\u9078
p617
I3199
sV\u7cfb
p618
I279
sV\u5ffd
p619
I1412
sV\u5e7c
p620
I1278
sV\u7aff
p621
I3424
sV\u8003
p622
I314
sV\u8782
p623
I2892
sV\u8305
p624
I2384
sV\u6284
p625
I2037
sV\u4e07
p626
I118
sV\u6b8a
p627
I1493
sV\u970d
p628
I1699
sV\u5c90
p629
I3200
sV\u5f92
p630
I1381
sV\u5669
p631
I3219
sV\u8098
p632
I3425
sV\u6c1b
p633
I1827
sV\u6e6e
p634
I3060
sS'UUUUUUUUUUUUUUUU0U0'
p635
I3805
sV\u6e9c
p636
I2579
sV\u6a1f
p637
I3426
sV\u9521
p638
I2149
sV\u94a0
p639
I2893
sS'00'
p640
I14
sV\u611a
p641
I2484
sV\u7325
p642
I3427
sV\u81ba
p643
I3806
sV\u7da6
p644
I3807
sV\u5929
p645
I37
sV\u58a8
p646
I1596
sV\u5baa
p647
I2074
sV\u672d
p648
I3808
sV\u97f3
p649
I809
sS'UUU0UUUU'
p650
I3809
sV\u6d31
p651
I2385
sV\u739f
p652
I3810
sV\u789f
p653
I3123
sV\u70b8
p654
I1247
sV\u73ba
p655
I2894
sV\u804b
p656
I3022
sV\u7a3f
p657
I1863
sV\u8574
p658
I2438
sV\u6043
p659
I3811
sV\u6345
p660
I2277
sS'0U'
p661
I887
sV\u634d
p662
I2696
sV\u8bca
p663
I1185
sV\u574d
p664
I2774
sV\u8f69
p665
I2775
sV\u91ce
p666
I1018
sS'000UUUU'
p667
I3708
sV\u5b55
p668
I1440
sV\u6657
p669
I3812
sV\u60d8
p670
I4319
sV\u6c5b
p671
I2485
sV\u5561
p672
I2106
sV\u94e0
p673
I3813
sV\u9063
p674
I2187
sV\u77e2
p675
I3814
sV\u52e4
p676
I1636
sV\u4ed1
p677
I3332
sV\u5de6
p678
I864
sV\u78e8
p679
I1659
sV\u846b
p680
I3023
sV\u676d
p681
I1195
sV\u826f
p682
I962
sV\u6cf0
p683
I1041
sV\u9677
p684
I1234
sV\u5179
p685
I2486
sV\u7f55
p686
I1934
sV\u7c7b
p687
I564
sV\u667e
p688
I2739
sV\u7efc
p689
I1308
sV\u7a7f
p690
I851
sV\u6500
p691
I1864
sV\u6602
p692
I2003
sV\u8304
p693
I2278
sV\u558b
p694
I3429
sV\u6a0a
p695
I3430
sV\u938f
p696
I3816
sV\u742c
p697
I3817
sV\u7c91
p698
I2580
sV\u5993
p699
I3431
sV\u7b14
p700
I1226
sV\u6797
p701
I494
sV\u8118
p702
I3819
sV\u6d9b
p703
I2038
sV\u621a
p704
I2776
sV\u5520
p705
I3372
sV\u58a9
p706
I3202
sV\u7b5d
p707
I3203
sV\u96cf
p708
I3204
sV\u672c
p709
I106
sV\u5140
p710
I3821
sV\u8d30
p711
I3432
sV\u6d32
p712
I623
sV\u6ed3
p713
I4015
sV\u7436
p714
I3822
sV\u70b9
p715
I105
sV\u523a
p716
I1026
sV\u7ebd
p717
I1286
sV\u5bbf
p718
I1425
sV\u6642
p719
I3823
sV\u62c5
p720
I763
sV\u8fc7
p721
I57
sV\u8c46
p722
I1358
sV\u68c9
p723
I2075
sV\u96cd
p724
I3824
sV\u90e7
p725
I3825
sV\u7d50
p726
I3433
sV\u59d3
p727
I1215
sV\u7b54
p728
I1176
sV\u5238
p729
I1061
sV\u8e0a
p730
I3852
sV\u4edd
p731
I3826
sV\u4f5c
p732
I74
sV\u8bdf
p733
I2487
sV\u560e
p734
I3827
sV\u9662
p735
I247
sV\u900d
p736
I3434
sV\u5fe7
p737
I1359
sV\u7968
p738
I403
sV\u5a6a
p739
I3830
sV\u86ed
p740
I3831
sV\u6cf1
p741
I3435
sV\u8d70
p742
I276
sV\u8e72
p743
I2777
sV\u7476
p744
I2188
sV\u70f9
p745
I2581
sV\u9178
p746
I1196
sV\u727a
p747
I1771
sV\u7efd
p748
I2225
sV\u5f7c
p749
I2279
sV\u5bff
p750
I1413
sV\u987e
p751
I1135
sV\u8247
p752
I2500
sS'0UUUU'
p753
I3832
sV\u6682
p754
I1136
sV\u6c22
p755
I2778
sV\u6809
p756
I3833
sS'UUUUUUU00UU'
p757
I3834
sV\u950b
p758
I1660
sV\u7a96
p759
I3835
sV\u778c
p760
I3836
sV\u708e
p761
I1530
sV\u5c11
p762
I228
sV\u7b94
p763
I3837
sV\u6717
p764
I1177
sV\u9f98
p765
I4268
sV\u8198
p766
I3838
sV\u6d1b
p767
I1344
sV\u629a
p768
I2076
sV\u4e1d
p769
I1082
sV\u9075
p770
I2101
sV\u73fa
p771
I4316
sS'UUUUUUUUUUUUUUUUUUUU'
p772
I3436
sV\u5225
p773
I3839
sV\u5f27
p774
I3437
sS'UUUUUUUUUUUUUUUUUU'
p775
I3026
sV\u59a8
p776
I1932
sV\u662d
p777
I2896
sV\u632f
p778
I1316
sV\u80ae
p779
I3438
sV\u8c31
p780
I1772
sV\u4eb2
p781
I465
sV\u6a35
p782
I3840
sV\u6bb4
p783
I1865
sV\u7737
p784
I2779
sV\u8c8c
p785
I1597
sS'0UUUUUUU'
p786
I3789
sV\u5e3d
p787
I2033
sV\u78be
p788
I3439
sV\u6f47
p789
I3440
sV\u89c8
p790
I1086
sV\u964d
p791
I468
sV\u80e7
p792
I3841
sV\u534f
p793
I684
sV\u90ce
p794
I2227
sV\u5c51
p795
I3027
sV\u7ed2
p796
I2660
sV\u8155
p797
I2869
sV\u8757
p798
I3843
sV\u6059
p799
I3206
sV\u8d5b
p800
I360
sV\u4e5d
p801
I932
sV\u8fdc
p802
I586
sV\u56e2
p803
I411
sV\u5265
p804
I1866
sV\u53e4
p805
I659
sV\u5ce6
p806
I3844
sV\u59e8
p807
I2386
sV\u67ec
p808
I2488
sV\u836f
p809
I758
sV\u60ee
p810
I3207
sV\u7166
p811
I3845
sV\u4ef2
p812
I2039
sV\u8bf4
p813
I122
sV\u5777
p814
I2780
sV\u74f6
p815
I1281
sV\u51f8
p816
I2228
sV\u52fa
p817
I3441
sV\u5e7d
p818
I2489
sV\u7ffc
p819
I2490
sV\u6854
p820
I3846
sV\u6781
p821
I685
sV\u6600
p822
I3847
sV\u8283
p823
I3848
sV\u6f06
p824
I2491
sV\u6b89
p825
I3442
sV\u768b
p826
I3849
sV\u540c
p827
I146
sV\u730e
p828
I2077
sV\u5e10
p829
I2899
sV\u9995
p830
I3850
sV\u7814
p831
I434
sV\u8258
p832
I2280
sV\u6218
p833
I299
sV\u4e9b
p834
I155
sV\u811a
p835
I993
sV\u6d9d
p836
I2326
sV\u8c1c
p837
I3028
sV\u5704
p838
I3560
sV\u52a3
p839
I2492
sV\u915a
p840
I3144
sV\u51a5
p841
I3208
sV\u5f26
p842
I3209
sS'UUUUUUUUUU0000'
p843
I3210
sV\u592a
p844
I431
sV\u65ad
p845
I657
sV\u642c
p846
I1905
sV\u80af
p847
I1257
sV\u8fb1
p848
I2078
sV\u4e30
p849
I1114
sV\u80b2
p850
I527
sV\u7b3c
p851
I2040
sV\u7736
p852
I3444
sV\u7238
p853
I1064
sV\u9ebb
p854
I1153
sS'UUU000'
p855
I3327
sV\u5c3c
p856
I829
sV\u6e0a
p857
I2496
sV\u4f46
p858
I151
sV\u8bc9
p859
I686
sV\u50cf
p860
I582
sV\u534e
p861
I292
sV\u5fd1
p862
I3853
sV\u8e39
p863
I3445
sV\u9ad3
p864
I2669
sV\u9170
p865
I3211
sV\u5854
p866
I1065
sV\u6756
p867
I3446
sV\u6258
p868
I1083
sV\u8ddd
p869
I1154
sV\u9f3e
p870
I3854
sV\u7891
p871
I2151
sV\u71e5
p872
I2152
sV\u630e
p873
I3447
sV\u5f66
p874
I2107
sV\u7be9
p875
I3856
sV\u996a
p876
I3029
sV\u65ed
p877
I3212
sV\u846c
p878
I2229
sV\u60ef
p879
I1188
sV\u636e
p880
I148
sV\u4ff1
p881
I1906
sV\u4e70
p882
I472
sV\u74f7
p883
I2079
sV\u9776
p884
I3857
sV\u53f9
p885
I1700
sV\u63e0
p886
I3858
sV\u9c7c
p887
I838
sV\u7b7e
p888
I933
sV\u8680
p889
I3448
sV\u6084
p890
I1828
sV\u8f86
p891
I687
sS'UUUUUUUUUUUUUUUUUUUUUUUUUUUUUUUUUUUUUUUUUUUUUUUUUUUUU'
p892
I3859
sV\u6016
p893
I2108
sV\u548c
p894
I25
sV\u900f
p895
I747
sV\u5e90
p896
I2900
sV\u68c2
p897
I3972
sV\u5915
p898
I1936
sV\u6298
p899
I1137
sV\u4e1b
p900
I2493
sV\u8d1d
p901
I1390
sV\u6dc4
p902
I3449
sV\u7ff1
p903
I4178
sV\u961a
p904
I3860
sV\u66e6
p905
I4359
sV\u5c27
p906
I3861
sV\u9aa8
p907
I1360
sV\u64ac
p908
I3451
sV\u602f
p909
I3452
sV\u6db2
p910
I1382
sV\u5339
p911
I2109
sV\u99ab
p912
I3862
sV\u5d3d
p913
I3030
sV\u5bbe
p914
I1115
sV\u6c47
p915
I1066
sV\u6b49
p916
I1441
sV\u964b
p917
I2901
sV\u54cc
p918
I3863
sV\u504f
p919
I1548
sV\u7f51
p920
I85
sV\u9955
p921
I3213
sV\u6d4f
p922
I2494
sV\u8457
p923
I1258
sV\u62d8
p924
I1637
sV\u6e5b
p925
I2902
sV\u7ece
p926
I2236
sS'U0000U'
p927
I3864
sV\u8bde
p928
I1474
sV\u7761
p929
I882
sV\u56e0
p930
I165
sV\u75e2
p931
I3865
sV\u5165
p932
I143
sV\u70e4
p933
I1720
sV\u93d0
p934
I3974
sV\u5b69
p935
I340
sV\u866b
p936
I1287
sV\u84ec
p937
I3867
sV\u606f
p938
I280
sV\u4ef0
p939
I1803
sV\u97f6
p940
I2443
sV\u72f8
p941
I3868
sV\u5e7b
p942
I1598
sV\u51fa
p943
I24
sV\u987f
p944
I1236
sV\u55d4
p945
I3869
sV\u8681
p946
I3215
sV\u6700
p947
I60
sV\u8e2a
p948
I1426
sV\u8a89
p949
I1773
sV\u578b
p950
I644
sV\u7ad6
p951
I3149
sV\u950c
p952
I3453
sV\u718f
p953
I3216
sV\u832c
p954
I3181
sV\u5914
p955
I3870
sV\u6597
p956
I1189
sV\u7fd8
p957
I2974
sV\u8299
p958
I3454
sV\u6e58
p959
I1907
sV\u4f9b
p960
I579
sV\u7720
p961
I1475
sV\u7422
p962
I3032
sV\u5e26
p963
I287
sV\u7b28
p964
I3033
sV\u67ab
p965
I2583
sV\u582a
p966
I1937
sV\u64ad
p967
I635
sV\u852c
p968
I1743
sV\u4f30
p969
I1269
sV\u8bb3
p970
I2784
sV\u8c32
p971
I3871
sV\u68b5
p972
I3872
sV\u55b7
p973
I1721
sV\u9636
p974
I1317
sV\u72b9
p975
I1974
sV\u5eb5
p976
I3217
sV\u503a
p977
I987
sV\u7cbd
p978
I1908
sV\u6740
p979
I794
sV\u698a
p980
I3873
sV\u60c5
p981
I168
sV\u63b7
p982
I2904
sV\u57cb
p983
I1909
sV\u54cd
p984
I571
sV\u754c
p985
I278
sV\u51cf
p986
I690
sV\u9ed1
p987
I636
sV\u9f50
p988
I1216
sV\u5bd3
p989
I2584
sV\u78d5
p990
I2785
sV\u5954
p991
I1383
sV\u65d7
p992
I795
sV\u6656
p993
I2786
sV\u62d9
p994
I3218
sV\u8fdb
p995
I99
sV\u805a
p996
I1074
sV\u59bb
p997
I1122
sV\u69df
p998
I3874
sV\u8de4
p999
I3455
sV\u9760
p1000
I926
sV\u53e3
p1001
I260
sV\u5462
p1002
I1019
sV\u7164
p1003
I1237
sV\u5de7
p1004
I1391
sV\u9e66
p1005
I3456
sV\u5ae9
p1006
I2327
sV\u5b68
p1007
I3875
sV\u62e6
p1008
I1868
sV\u656c
p1009
I1279
sV\u626e
p1010
I1774
sV\u5a06
p1011
I4103
sV\u8f70
p1012
I1807
sV\u6bf3
p1013
I3876
sV\u6c72
p1014
I3034
sV\u68f5
p1015
I2328
sV\u95f7
p1016
I2230
sV\u9676
p1017
I1938
sV\u5378
p1018
I2387
sV\u7ffb
p1019
I1028
sS'UUUUUU000'
p1020
I3496
sV\u59ff
p1021
I1570
sV\u9a7e
p1022
I789
sV\u70c1
p1023
I3877
sV\u8303
p1024
I748
sV\u8482
p1025
I1744
sV\u8005
p1026
I84
sS'00000U00'
p1027
I3878
sV\u4e86
p1028
I12
sV\u770b
p1029
I92
sV\u540d
p1030
I83
sV\u5f90
p1031
I1571
sV\u7c92
p1032
I2439
sV\u5815
p1033
I3457
sV\u8517
p1034
I3879
sV\u6696
p1035
I1075
sV\u7984
p1036
I3880
sV\u6398
p1037
I2281
sV\u809a
p1038
I1745
sV\u691f
p1039
I3881
sV\u97a0
p1040
I3220
sV\u94a2
p1041
I1190
sV\u51a4
p1042
I2788
sV\u7d27
p1043
I772
sV\u7ea6
p1044
I409
sV\u5a29
p1045
I3221
sV\u672b
p1046
I1248
sV\u642d
p1047
I1309
sV\u72d9
p1048
I3222
sS'UUUUUUUUUUU'
p1049
I1661
sV\u69b4
p1050
I2282
sV\u7537
p1051
I333
sV\u96b6
p1052
I2670
sV\u5239
p1053
I2080
sV\u9f3b
p1054
I1701
sV\u5c3d
p1055
I666
sV\u75f4
p1056
I2388
sV\u8343
p1057
I3882
sV\u64c2
p1058
I3883
sV\u7977
p1059
I3035
sV\u6d47
p1060
I2440
sV\u4ec6
p1061
I2905
sV\u8bc8
p1062
I1393
sV\u9e51
p1063
I3036
sV\u5fd0
p1064
I3884
sV\u5b53
p1065
I3885
sV\u7855
p1066
I2585
sV\u59d4
p1067
I435
sS'0000000U0'
p1068
I3886
sV\u4f5b
p1069
I1249
sV\u80da
p1070
I3037
sV\u6c5d
p1071
I3038
sV\u837b
p1072
I4273
sV\u895f
p1073
I3458
sV\u9661
p1074
I3223
sV\u57e0
p1075
I2586
sV\u94e2
p1076
I3887
sV\u5065
p1077
I598
sV\u51e4
p1078
I1549
sS'UUU00'
p1079
I1572
sV\u7950
p1080
I3888
sV\u5be8
p1081
I1442
sV\u65ec
p1082
I2041
sV\u62ee
p1083
I3459
sV\u4e71
p1084
I1067
sV\u8ff0
p1085
I1146
sV\u96f6
p1086
I934
sV\u7279
p1087
I239
sV\u53f8
p1088
I182
sV\u5f7b
p1089
I1829
sV\u96fe
p1090
I1869
sV\u7c7d
p1091
I3039
sV\u997f
p1092
I1870
sV\u8981
p1093
I36
sV\u6c83
p1094
I2004
sV\u8f85
p1095
I1746
sV\u8106
p1096
I2110
sV\u752d
p1097
I3889
sV\u870a
p1098
I3890
sV\u7b8d
p1099
I3891
sV\u5e8f
p1100
I1087
sV\u5d0e
p1101
I3040
sV\u9010
p1102
I963
sV\u9493
p1103
I2495
sV\u9614
p1104
I2042
sV\u85b9
p1105
I3892
sV\u809b
p1106
I3893
sV\u4f1a
p1107
I23
sV\u821c
p1108
I3460
sV\u865a
p1109
I1384
sV\u7126
p1110
I1331
sV\u5428
p1111
I1361
sV\u88ab
p1112
I75
sV\u8bad
p1113
I945
sV\u6eaf
p1114
I2677
sV\u5b5c
p1115
I2824
sS'0'
p1116
I11
sV\u9e5c
p1117
I3650
sV\u5c38
p1118
I1515
sV\u90bb
p1119
I1662
sV\u5f3a
p1120
I267
sV\u51c7
p1121
I3919
sV\u76bf
p1122
I3224
sV\u553e
p1123
I3896
sV\u89c1
p1124
I365
sV\u8840
p1125
I628
sV\u8fc5
p1126
I1332
sV\u8e44
p1127
I3092
sV\u62c7
p1128
I2790
sV\u8146
p1129
I3898
sV\u85c9
p1130
I2671
sV\u6448
p1131
I3899
sV\u78cb
p1132
I3041
sV\u7ecf
p1133
I71
sV\u91d1
p1134
I119
sV\u9050
p1135
I3462
sV\u7352
p1136
I3463
sV\u57d5
p1137
I3900
sV\u6bef
p1138
I2389
sV\u86df
p1139
I3901
sV\u655e
p1140
I2441
sV\u5b62
p1141
I3042
sV\u9e64
p1142
I1910
sV\u7410
p1143
I2791
sV\u5468
p1144
I208
sV\u576a
p1145
I2283
sV\u8bed
p1146
I624
sV\u6d6e
p1147
I1573
sS'UUUUU0000'
p1148
I3902
sV\u6070
p1149
I2043
sV\u6674
p1150
I1776
sV\u5976
p1151
I1027
sV\u50fb
p1152
I3464
sV\u56ff
p1153
I3903
sV\u757e
p1154
I3904
sV\u8c03
p1155
I242
sV\u9a8c
p1156
I679
sS'UUU00UUUUUU'
p1157
I3465
sV\u5999
p1158
I1615
sV\u5413
p1159
I1685
sV\u9694
p1160
I1400
sV\u6d19
p1161
I3225
sV\u829c
p1162
I2231
sV\u661f
p1163
I477
sV\u98a0
p1164
I2587
sV\u5ba2
p1165
I212
sV\u5f25
p1166
I2329
sV\u7ea4
p1167
I2498
sS'UU0U0000'
p1168
I3907
sV\u7529
p1169
I2442
sV\u54a8
p1170
I2005
sV\u740d
p1171
I3908
sV\u8eaf
p1172
I2789
sV\u6aac
p1173
I2499
sV\u6e2f
p1174
I470
sV\u6dae
p1175
I3909
sV\u8131
p1176
I1101
sV\u83b2
p1177
I1638
sV\u6735
p1178
I1975
sV\u66b4
p1179
I798
sV\u5cb8
p1180
I1318
sV\u903b
p1181
I1830
sV\u963f
p1182
I547
sV\u75be
p1183
I997
sV\u68c0
p1184
I640
sV\u9976
p1185
I3578
sV\u6bc2
p1186
I3466
sV\u81a8
p1187
I2556
sV\u6247
p1188
I2071
sV\u81c6
p1189
I3911
sV\u8549
p1190
I2190
sV\u7076
p1191
I3912
sV\u5acc
p1192
I876
sV\u9e4f
p1193
I2330
sV\u5151
p1194
I1804
sS'UUUUUUUU000'
p1195
I3767
sV\u904f
p1196
I2792
sV\u7578
p1197
I2906
sV\u6d59
p1198
I1102
sV\u4fda
p1199
I4157
sV\u62dc
p1200
I1831
sV\u665f
p1201
I3914
sS'0U00U00U00'
p1202
I3226
sS'00UUUUUUUU'
p1203
I3915
sV\u5267
p1204
I779
sV\u54e8
p1205
I2793
sV\u886b
p1206
I3043
sV\u6dee
p1207
I2111
sV\u60f0
p1208
I2588
sV\u83f2
p1209
I1319
sV\u66f4
p1210
I198
sV\u7a77
p1211
I1747
sV\u72fc
p1212
I2044
sV\u9ecf
p1213
I2907
sV\u6881
p1214
I1372
sV\u8001
p1215
I197
sV\u532a
p1216
I2672
sV\u6e85
p1217
I3467
sV\u6387
p1218
I3227
sV\u6006
p1219
I3894
sV\u998b
p1220
I3918
sV\u660a
p1221
I3228
sV\u7a8d
p1222
I2390
sV\u9091
p1223
I3468
sV\u5212
p1224
I542
sV\u6e86
p1225
I3679
sV\u6c28
p1226
I2795
sV\u6816
p1227
I2796
sV\u6c99
p1228
I698
sV\u5605
p1229
I3469
sV\u4e1a
p1230
I64
sV\u829d
p1231
I2045
sV\u831c
p1232
I4183
sV\u641e
p1233
I1414
sV\u7f24
p1234
I3920
sV\u5026
p1235
I2391
sV\u94a9
p1236
I2501
sV\u7528
p1237
I55
sV\u962a
p1238
I3044
sV\u4faf
p1239
I2392
sV\u6c2e
p1240
I3045
sV\u6734
p1241
I2081
sV\u7cb9
p1242
I2502
sV\u51bb
p1243
I1443
sV\u543e
p1244
I2673
sV\u88c1
p1245
I972
sV\u5761
p1246
I1362
sV\u8dc3
p1247
I1663
sV\u4ec5
p1248
I563
sV\u5eb7
p1249
I630
sV\u83c7
p1250
I1976
sV\u8046
p1251
I2674
sV\u84c9
p1252
I2675
sV\u6548
p1253
I672
sV\u59cb
p1254
I375
sS'UUUUUUUUUUUUUUUUUUUUUUUUUUUUU'
p1255
I3921
sV\u5fcf
p1256
I3922
sV\u5c4e
p1257
I3046
sV\u90d1
p1258
I1076
sV\u79b9
p1259
I2908
sV\u55d3
p1260
I3923
sV\u7252
p1261
I3924
sV\u96d5
p1262
I1574
sV\u8bd7
p1263
I1238
sV\u9165
p1264
I2909
sV\u748e
p1265
I3925
sV\u54bb
p1266
I3926
sV\u5960
p1267
I2503
sS'U000'
p1268
I2589
sV\u7ee5
p1269
I3927
sV\u7cd9
p1270
I3471
sV\u62c2
p1271
I3741
sV\u966a
p1272
I1401
sV\u8b6c
p1273
I3928
sV\u4fef
p1274
I2232
sV\u8170
p1275
I1550
sV\u8272
p1276
I430
sV\u8774
p1277
I2284
sV\u7bf7
p1278
I2590
sV\u9876
p1279
I1048
sV\u51fb
p1280
I512
sV\u98e8
p1281
I4312
sV\u77ff
p1282
I1415
sV\u747e
p1283
I3472
sS'UUUUUUUUUUUUUUUU'
p1284
I2676
sV\u6e05
p1285
I412
sV\u6f84
p1286
I1794
sV\u6307
p1287
I366
sV\u8086
p1288
I2153
sV\u868a
p1289
I1494
sV\u7a0d
p1290
I2154
sV\u5b8c
p1291
I436
sV\u5f0f
p1292
I264
sV\u563f
p1293
I3047
sV\u7011
p1294
I3229
sV\u8896
p1295
I1832
sS'UUUU0UUUUUUUU'
p1296
I3929
sV\u611b
p1297
I3930
sV\u4e9a
p1298
I272
sV\u671f
p1299
I136
sV\u649e
p1300
I1056
sV\u5821
p1301
I1575
sV\u9e25
p1302
I3474
sV\u7fa4
p1303
I669
sV\u90a6
p1304
I1616
sV\u8bdb
p1305
I3310
sV\u4f2f
p1306
I1516
sV\u6cae
p1307
I3048
sV\u6635
p1308
I3475
sS'000UUUUUU'
p1309
I3049
sV\u5c39
p1310
I3230
sV\u7eba
p1311
I3050
sS'0U0'
p1312
I533
sV\u94be
p1313
I2797
sV\u8d43
p1314
I2798
sV\u4e45
p1315
I1001
sV\u4fc4
p1316
I665
sV\u80c6
p1317
I2070
sV\u594b
p1318
I1288
sV\u77f6
p1319
I2782
sV\u5bcc
p1320
I637
sV\u5e4c
p1321
I3256
sV\u52d2
p1322
I1495
sV\u9655
p1323
I1444
sV\u57d4
p1324
I2333
sV\u6dd8
p1325
I1551
sV\u6eda
p1326
I1664
sV\u83dc
p1327
I773
sV\u675f
p1328
I1088
sV\u64de
p1329
I3052
sV\u5367
p1330
I1531
sV\u70e6
p1331
I1496
sV\u95e8
p1332
I166
sV\u696b
p1333
I3932
sV\u96ea
p1334
I1427
sV\u8bec
p1335
I3231
sV\u8f6f
p1336
I830
sV\u6cee
p1337
I3933
sS'UUUUU0000U'
p1338
I3934
sV\u67f4
p1339
I2505
sV\u7b77
p1340
I2444
sV\u58f6
p1341
I3232
sV\u5c79
p1342
I3053
sV\u517b
p1343
I553
sV\u5efa
p1344
I219
sV\u53fc
p1345
I3815
sV\u777f
p1346
I3476
sV\u94fe
p1347
I1373
sV\u8a00
p1348
I537
sV\u6e83
p1349
I2334
sV\u8902
p1350
I3936
sV\u8d85
p1351
I316
sV\u8087
p1352
I2155
sV\u8700
p1353
I2082
sV\u6789
p1354
I3477
sV\u9a8b
p1355
I3054
sV\u598d
p1356
I3478
sV\u780c
p1357
I3055
sV\u9f0e
p1358
I2233
sV\u7391
p1359
I3937
sV\u7693
p1360
I3938
sV\u5112
p1361
I2445
sV\u6897
p1362
I3479
sV\u8f99
p1363
I3939
sV\u4e18
p1364
I2446
sV\u629b
p1365
I1599
sV\u7576
p1366
I3804
sV\u819d
p1367
I2234
sV\u601c
p1368
I2911
sV\u7ba1
p1369
I229
sV\u7a20
p1370
I3233
sV\u9b5a
p1371
I3473
sV\u5c24
p1372
I1476
sV\u50a7
p1373
I3940
sV\u77a9
p1374
I2912
sV\u565c
p1375
I3675
sV\u83b1
p1376
I1385
sV\u8230
p1377
I1777
sV\u82df
p1378
I2801
sV\u8c1b
p1379
I3481
sV\u7fb9
p1380
I4308
sV\u5e38
p1381
I282
sV\u715e
p1382
I3676
sV\u503c
p1383
I577
sV\u54bf
p1384
I3941
sV\u573e
p1385
I980
sV\u8bc1
p1386
I335
sV\u4ec3
p1387
I3942
sV\u8fc2
p1388
I3987
sV\u76fe
p1389
I1977
sV\u7acb
p1390
I338
sV\u854a
p1391
I3236
sV\u79cd
p1392
I175
sV\u584c
p1393
I1617
sV\u53d1
p1394
I26
sV\u5250
p1395
I3943
sV\u9152
p1396
I740
sV\u75d5
p1397
I2393
sV\u8fd9
p1398
I27
sV\u4e58
p1399
I767
sV\u62db
p1400
I680
sV\u8d5a
p1401
I1477
sV\u675e
p1402
I3944
sV\u5be1
p1403
I2394
sV\u7ee3
p1404
I3483
sV\u5962
p1405
I1978
sV\u5de5
p1406
I81
sV\u70e7
p1407
I1239
sV\u5366
p1408
I2678
sV\u97e9
p1409
I673
sV\u5668
p1410
I600
sV\u756a
p1411
I1640
sV\u886c
p1412
I2913
sV\u6cef
p1413
I3484
sV\u8f6e
p1414
I750
sV\u83f1
p1415
I3237
sV\u6270
p1416
I1471
sV\u86f3
p1417
I2802
sV\u78f7
p1418
I3238
sV\u5e78
p1419
I831
sV\u51fd
p1420
I3239
sV\u707c
p1421
I3056
sV\u777e
p1422
I3945
sV\u62f1
p1423
I3524
sV\u4e03
p1424
I998
sV\u6982
p1425
I1289
sV\u8386
p1426
I2191
sV\u6709
p1427
I10
sV\u8fed
p1428
I2921
sV\u7a0b
p1429
I312
sV\u590d
p1430
I539
sV\u788c
p1431
I1979
sV\u5c0f
p1432
I49
sV\u7f8e
p1433
I62
sV\u9192
p1434
I848
sV\u5494
p1435
I3240
sV\u6817
p1436
I2914
sV\u6b96
p1437
I1833
sV\u4f19
p1438
I731
sV\u4e98
p1439
I3947
sV\u621b
p1440
I3241
sV\u8f9b
p1441
I1532
sV\u6d48
p1442
I3948
sV\u9e23
p1443
I2235
sV\u501a
p1444
I3548
sV\u9ca4
p1445
I2112
sV\u53a6
p1446
I1445
sV\u5729
p1447
I2803
sS'0U0U'
p1448
I1333
sV\u80f3
p1449
I2915
sV\u6c2f
p1450
I2506
sV\u4fae
p1451
I2916
sV\u5636
p1452
I3242
sV\u5bb6
p1453
I30
sV\u5f39
p1454
I1049
sV\u7eb8
p1455
I981
sV\u523b
p1456
I877
sV\u7a1e
p1457
I4196
sV\u70bc
p1458
I1576
sS'00U0UUUUUUUUUUUU0'
p1459
I3951
sV\u4e43
p1460
I2046
sV\u89c2
p1461
I429
sV\u6d45
p1462
I2507
sV\u6cc4
p1463
I1805
sV\u988d
p1464
I3243
sV\u63c6
p1465
I3952
sV\u6749
p1466
I2934
sS'0U00'
p1467
I1008
sS'UUUU000'
p1468
I3953
sV\u5c4f
p1469
I1446
sV\u5351
p1470
I2508
sV\u72d0
p1471
I2591
sV\u5555
p1472
I3954
sV\u8857
p1473
I631
sV\u4f59
p1474
I651
sV\u4ed8
p1475
I844
sV\u625b
p1476
I2192
sV\u54ce
p1477
I3955
sV\u80dc
p1478
I911
sV\u67de
p1479
I3956
sV\u7ae0
p1480
I1155
sV\u797a
p1481
I3957
sV\u53e6
p1482
I949
sV\u9769
p1483
I615
sV\u96e8
p1484
I528
sV\u95ea
p1485
I1982
sS'U0U0UUUUUUU'
p1486
I3958
sV\u4fee
p1487
I852
sV\u9877
p1488
I3485
sV\u5f79
p1489
I1871
sV\u7ef8
p1490
I2447
sV\u517d
p1491
I2336
sS'0000000000'
p1492
I3616
sV\u77fe
p1493
I3959
sV\u8f83
p1494
I668
sV\u6c85
p1495
I3486
sV\u8469
p1496
I2337
sV\u8206
p1497
I2113
sV\u589f
p1498
I3428
sV\u6708
p1499
I45
sV\u5b8b
p1500
I1506
sV\u788d
p1501
I1577
sS'UU0'
p1502
I2338
sV\u7459
p1503
I3269
sV\u531d
p1504
I2804
sV\u5012
p1505
I799
sV\u9f88
p1506
I3488
sV\u4f18
p1507
I701
sV\u7750
p1508
I2332
sV\u6c1a
p1509
I3489
sV\u809d
p1510
I1980
sV\u7a84
p1511
I2156
sV\u9aa1
p1512
I3961
sV\u7b20
p1513
I3490
sV\u56da
p1514
I2612
sV\u7ca5
p1515
I2114
sV\u7784
p1516
I3491
sV\u5728
p1517
I5
sV\u742a
p1518
I2805
sV\u88ad
p1519
I988
sV\u6daf
p1520
I2083
sV\u8e2e
p1521
I3245
sV\u62b1
p1522
I1270
sV\u6109
p1523
I2006
sV\u4f5f
p1524
I3818
sS'UUUUUUUUUUUUUUUUUUUUU'
p1525
I3246
sV\u5a36
p1526
I2593
sV\u7eb9
p1527
I1578
sV\u7f38
p1528
I2806
sV\u53bb
p1529
I144
sV\u5c3a
p1530
I1939
sV\u70bd
p1531
I2807
sV\u5189
p1532
I2917
sV\u763e
p1533
I2918
sV\u4fc3
p1534
I1042
sV\u6842
p1535
I1320
sV\u8d44
p1536
I170
sV\u644a
p1537
I1981
sV\u98cd
p1538
I3963
sV\u82b9
p1539
I3058
sV\u7554
p1540
I2449
sV\u4ed9
p1541
I1872
sV\u6f58
p1542
I2115
sV\u8c5a
p1543
I2594
sV\u865e
p1544
I3059
sV\u5ae1
p1545
I3493
sV\u5ce5
p1546
I2919
sV\u7266
p1547
I3247
sS'UUU'
p1548
I187
sV\u5768
p1549
I3964
sV\u6beb
p1550
I1392
sV\u8def
p1551
I130
sV\u6d3c
p1552
I2945
sV\u82f1
p1553
I348
sV\u67f3
p1554
I1301
sV\u5792
p1555
I3965
sV\u6574
p1556
I460
sV\u7a76
p1557
I466
sV\u5315
p1558
I3966
sV\u90fd
p1559
I88
sV\u517c
p1560
I1579
sV\u767e
p1561
I449
sS'0000UU0000'
p1562
I3855
sV\u8c05
p1563
I2395
sV\u5740
p1564
I1600
sV\u7b0b
p1565
I2808
sV\u80f0
p1566
I3968
sV\u780d
p1567
I2007
sV\u5211
p1568
I1211
sV\u9713
p1569
I3969
sV\u7092
p1570
I1478
sV\u5415
p1571
I2116
sV\u5594
p1572
I3061
sV\u7898
p1573
I3248
sV\u4e19
p1574
I3495
sV\u631b
p1575
I3970
sV\u601d
p1576
I660
sV\u819c
p1577
I1618
sV\u7889
p1578
I4324
sV\u741b
p1579
I3971
sV\u5ba0
p1580
I1873
sV\u98a2
p1581
I2897
sV\u997d
p1582
I3497
sV\u7629
p1583
I2898
sV\u54aa
p1584
I2920
sV\u8d2f
p1585
I1806
sV\u4eae
p1586
I796
sV\u8231
p1587
I2084
sV\u63b0
p1588
I2680
sV\u60b2
p1589
I1259
sV\u5937
p1590
I2509
sV\u533b
p1591
I298
sV\u96be
p1592
I332
sV\u914b
p1593
I3062
sV\u8bc0
p1594
I2396
sV\u88c2
p1595
I1684
sS'UUUUUUUUUUUUUUUUUUUUUUUUUUUUUUUUUUUUUUUUUUUUUUUUUUUUUUUUU'
p1596
I3973
sV\u6377
p1597
I1686
sV\u62c6
p1598
I1580
sV\u7b4b
p1599
I2595
sV\u60f6
p1600
I3499
sV\u9ece
p1601
I1614
sV\u5251
p1602
I2117
sV\u73d0
p1603
I3866
sV\u9753
p1604
I2809
sV\u5455
p1605
I2596
sV\u91cf
p1606
I191
sV\u4e59
p1607
I2597
sV\u8fd8
p1608
I93
sV\u711a
p1609
I3250
sV\u7ed1
p1610
I1533
sV\u5c65
p1611
I2008
sV\u7167
p1612
I443
sV\u7f50
p1613
I2139
sV\u9669
p1614
I568
sV\u54d0
p1615
I3988
sV\u54ea
p1616
I694
sV\u7bd3
p1617
I3975
sV\u5a7f
p1618
I3251
sV\u6773
p1619
I3976
sV\u8475
p1620
I2810
sV\u8f7f
p1621
I1749
sV\u9977
p1622
I2681
sV\u68d5
p1623
I3131
sV\u7435
p1624
I3977
sV\u907d
p1625
I3978
sV\u957f
p1626
I70
sV\u56fe
p1627
I309
sV\u8d81
p1628
I2047
sV\u6f02
p1629
I1517
sV\u6687
p1630
I3252
sV\u8200
p1631
I3743
sV\u5f2d
p1632
I3980
sV\u5e0c
p1633
I681
sV\u9a8f
p1634
I2193
sV\u8eac
p1635
I3500
sV\u7591
p1636
I775
sV\u5410
p1637
I1334
sV\u9093
p1638
I1386
sV\u5395
p1639
I1874
sV\u679d
p1640
I2009
sV\u6fdb
p1641
I3501
sV\u7531
p1642
I301
sV\u78a3
p1643
I3981
sV\u7f22
p1644
I3502
sV\u96a7
p1645
I2339
sV\u9526
p1646
I1387
sV\u6cab
p1647
I1834
sV\u732a
p1648
I1123
sV\u6d5c
p1649
I3063
sV\u73ae
p1650
I3253
sV\u6234
p1651
I1374
sV\u7eb7
p1652
I937
sV\u59b9
p1653
I1127
sV\u7838
p1654
I1911
sV\u94bb
p1655
I1983
sV\u52bf
p1656
I538
sV\u6c40
p1657
I3254
sV\u7d0a
p1658
I3503
sV\u6bc5
p1659
I2118
sV\u6a44
p1660
I3255
sV\u86c7
p1661
I1912
sV\u5760
p1662
I1867
sV\u5ccb
p1663
I3504
sV\u5fcd
p1664
I1416
sV\u9e4c
p1665
I3051
sV\u594e
p1666
I2811
sV\u55d1
p1667
I3505
sV\u5450
p1668
I3257
sV\u9752
p1669
I576
sV\u5254
p1670
I2812
sV\u4ed7
p1671
I1984
sV\u8d56
p1672
I1665
sV\u62df
p1673
I1179
sV\u5de1
p1674
I1428
sV\u5c60
p1675
I3064
sV\u5f62
p1676
I520
sV\u5be5
p1677
I3065
sS'0000U0000000000'
p1678
I4242
sV\u56e7
p1679
I3506
sV\u5566
p1680
I1170
sS'UUUUUUUUUUUUUUUUUUUUUU'
p1681
I3507
sV\u9068
p1682
I3982
sV\u978b
p1683
I1371
sV\u8e66
p1684
I3201
sV\u4fed
p1685
I2679
sV\u9e93
p1686
I3066
sV\u65f1
p1687
I2922
sV\u60f3
p1688
I207
sV\u8912
p1689
I3508
sV\u5ef7
p1690
I2511
sS'0U0UUU'
p1691
I3509
sV\u5b7a
p1692
I3983
sV\u6845
p1693
I3984
sV\u52ff
p1694
I2285
sV\u8c14
p1695
I3985
sV\u6d01
p1696
I1345
sV\u8d41
p1697
I2119
sV\u8109
p1698
I1875
sV\u94ed
p1699
I2048
sV\u7316
p1700
I3511
sV\u5490
p1701
I3512
sV\u7792
p1702
I3513
sV\u7315
p1703
I3258
sV\u6e17
p1704
I2286
sV\u671d
p1705
I823
sV\u821f
p1706
I1687
sV\u951a
p1707
I3406
sV\u9aa4
p1708
I2512
sV\u50a8
p1709
I1290
sV\u4eac
p1710
I305
sV\u6a2f
p1711
I3067
sV\u99a5
p1712
I4204
sV\u64b0
p1713
I2397
sV\u8033
p1714
I1260
sV\u8335
p1715
I3259
sV\u7c9f
p1716
I4090
sV\u5e37
p1717
I2398
sV\u5939
p1718
I1702
sV\u543b
p1719
I2157
sV\u56bc
p1720
I2599
sV\u6d41
p1721
I349
sV\u6843
p1722
I1703
sV\u73ca
p1723
I2276
sV\u8367
p1724
I3069
sV\u5c4b
p1725
I1156
sV\u83ca
p1726
I2450
sV\u7f4d
p1727
I3260
sV\u8beb
p1728
I3070
sV\u9551
p1729
I1940
sV\u94d0
p1730
I3510
sV\u9053
p1731
I96
sV\u5355
p1732
I311
sV\u5ea6
p1733
I145
sV\u6dd6
p1734
I3989
sV\u68d8
p1735
I3514
sV\u845b
p1736
I2049
sV\u8bda
p1737
I1171
sV\u5ffb
p1738
I2787
sS'UUUUUUUUUUUUUUUUUUUUUUUUU0000'
p1739
I3990
sV\u755c
p1740
I3261
sV\u55e6
p1741
I3515
sV\u90e8
p1742
I73
sV\u8c6b
p1743
I1876
sV\u53ea
p1744
I194
sV\u6f6d
p1745
I1835
sV\u4eec
p1746
I54
sV\u6073
p1747
I2923
sV\u5979
p1748
I362
sV\u547b
p1749
I3991
sV\u5bfa
p1750
I1750
sV\u777d
p1751
I3071
sV\u76fc
p1752
I1941
sV\u527f
p1753
I3516
sV\u82d4
p1754
I3992
sV\u6c81
p1755
I2924
sV\u8983
p1756
I3517
sV\u6d2a
p1757
I1601
sS'UUU000UUUUUUUUUUUUUUUUUUUUUUUUUUUU'
p1758
I3993
sV\u8089
p1759
I784
sV\u6108
p1760
I1808
sV\u8d51
p1761
I3994
sV\u5b8f
p1762
I1751
sV\u5510
p1763
I1435
sV\u6482
p1764
I3995
sV\u94af
p1765
I3996
sV\u8f97
p1766
I3276
sV\u6005
p1767
I3997
sV\u859b
p1768
I2399
sV\u871c
p1769
I1836
sV\u5ca1
p1770
I3998
sV\u7d20
p1771
I824
sV\u9e22
p1772
I3999
sV\u7aa5
p1773
I3519
sV\u77a7
p1774
I3262
sV\u5426
p1775
I658
sV\u7ebe
p1776
I4000
sV\u73bb
p1777
I1641
sV\u4ead
p1778
I1877
sV\u7728
p1779
I4001
sV\u8baf
p1780
I1043
sV\u81b3
p1781
I2682
sV\u62b5
p1782
I1302
sV\u725f
p1783
I3099
sV\u5fb7
p1784
I509
sV\u5938
p1785
I2513
sV\u55bb
p1786
I2340
sV\u773c
p1787
I529
sV\u53bf
p1788
I522
sV\u903e
p1789
I1752
sV\u6363
p1790
I2817
sV\u69c3
p1791
I4002
sV\u6446
p1792
I1335
sV\u6148
p1793
I1455
sV\u8339
p1794
I4184
sV\u7ecd
p1795
I1203
sV\u6863
p1796
I1653
sV\u54d1
p1797
I3263
sV\u610f
p1798
I162
sV\u4fd7
p1799
I1497
sV\u88d9
p1800
I2085
sS'00000000000'
p1801
I3264
sV\u66dd
p1802
I1029
sV\u675c
p1803
I1642
sV\u5ce1
p1804
I1837
sV\u59e3
p1805
I4003
sV\u5e62
p1806
I3265
sV\u7ae5
p1807
I667
sV\u5b64
p1808
I1619
sV\u97e7
p1809
I2925
sV\u70e9
p1810
I4004
sV\u5168
p1811
I67
sV\u6deb
p1812
I2683
sV\u526a
p1813
I1722
sV\u8f6c
p1814
I367
sV\u8bef
p1815
I938
sV\u6570
p1816
I188
sV\u81f3
p1817
I210
sV\u58f9
p1818
I3266
sV\u7978
p1819
I1784
sV\u95fb
p1820
I647
sV\u7a7a
p1821
I331
sV\u56fd
p1822
I6
sV\u903c
p1823
I1552
sV\u707e
p1824
I939
sV\u8c01
p1825
I862
sV\u796d
p1826
I2310
sV\u628a
p1827
I370
sV\u7f8c
p1828
I3090
sV\u788e
p1829
I1429
sV\u5411
p1830
I245
sV\u8219
p1831
I4008
sS'0U000'
p1832
I1942
sV\u4f17
p1833
I416
sV\u8398
p1834
I3521
sV\u55c5
p1835
I3267
sV\u679c
p1836
I167
sV\u631f
p1837
I2684
sV\u7ea2
p1838
I437
sV\u5a25
p1839
I3072
sV\u5ba4
p1840
I874
sV\u94a6
p1841
I2400
sV\u5029
p1842
I3523
sV\u71a8
p1843
I4009
sV\u8d2b
p1844
I1534
sV\u52aa
p1845
I918
sV\u4e2d
p1846
I9
sV\u5d34
p1847
I4010
sV\u65b0
p1848
I52
sV\u83b4
p1849
I4011
sV\u8e48
p1850
I2158
sV\u753b
p1851
I751
sV\u533f
p1852
I2288
sV\u6c41
p1853
I2159
sV\u6dc0
p1854
I2685
sV\u8bc4
p1855
I621
sV\u8747
p1856
I2289
sV\u77a0
p1857
I4012
sV\u61c8
p1858
I2926
sV\u5fcc
p1859
I2194
sV\u9b4f
p1860
I2195
sV\u98ce
p1861
I281
sV\u76d2
p1862
I2238
sV\u53d4
p1863
I1581
sV\u4f57
p1864
I4013
sV\u8859
p1865
I4014
sV\u655b
p1866
I2927
sV\u874e
p1867
I3268
sV\u67dc
p1868
I2239
sV\u635f
p1869
I878
sV\u80de
p1870
I1535
sV\u5c61
p1871
I2160
sV\u54e6
p1872
I1147
sV\u8d6b
p1873
I2120
sV\u9ea6
p1874
I1346
sV\u8e6d
p1875
I2600
sV\u5ed3
p1876
I3413
sV\u68ee
p1877
I1128
sV\u8471
p1878
I2161
sV\u66f2
p1879
I1117
sV\u63f4
p1880
I1129
sV\u5f77
p1881
I4016
sS'0U00U'
p1882
I1643
sV\u9879
p1883
I363
sV\u79f8
p1884
I3270
sV\u8389
p1885
I2240
sV\u7afa
p1886
I4017
sV\u767d
p1887
I426
sV\u537f
p1888
I2928
sV\u5c81
p1889
I320
sV\u969b
p1890
I4322
sV\u6487
p1891
I3525
sV\u6389
p1892
I973
sV\u6208
p1893
I2341
sV\u810a
p1894
I2601
sV\u9983
p1895
I3526
sV\u9791
p1896
I4018
sV\u9610
p1897
I2929
sV\u5195
p1898
I2686
sV\u9014
p1899
I982
sV\u82ae
p1900
I3271
sV\u641c
p1901
I1089
sV\u609f
p1902
I2241
sV\u631e
p1903
I4019
sV\u5fa1
p1904
I2010
sV\u7d22
p1905
I839
sV\u59a5
p1906
I2050
sV\u5824
p1907
I2687
sV\u94a7
p1908
I3073
sV\u8fb0
p1909
I2242
sV\u73a9
p1910
I661
sV\u5228
p1911
I4020
sV\u4eab
p1912
I780
sV\u5406
p1913
I4021
sV\u8c2c
p1914
I3527
sV\u68af
p1915
I1809
sV\u6089
p1916
I832
sV\u82b3
p1917
I2086
sV\u5cb7
p1918
I3272
sV\u5bb9
p1919
I492
sV\u593a
p1920
I1124
sV\u55bd
p1921
I3528
sV\u743c
p1922
I2243
sV\u533e
p1923
I3529
sV\u8fc1
p1924
I1536
sV\u8d42
p1925
I3074
sV\u89c5
p1926
I2930
sV\u6746
p1927
I1537
sV\u63c9
p1928
I3530
sV\u6248
p1929
I4022
sV\u814a
p1930
I2451
sV\u5dcd
p1931
I3273
sV\u5c4c
p1932
I3076
sV\u9650
p1933
I595
sV\u71d5
p1934
I2196
sV\u6cd7
p1935
I4023
sV\u6bd9
p1936
I2813
sV\u6a58
p1937
I2514
sV\u86db
p1938
I3531
sV\u695a
p1939
I1779
sV\u60df
p1940
I2602
sV\u635e
p1941
I1838
sV\u7fe1
p1942
I4024
sV\u5ae3
p1943
I3326
sV\u59e5
p1944
I2814
sV\u5766
p1945
I1227
sV\u53e9
p1946
I3274
sV\u8b66
p1947
I253
sV\u6b6e
p1948
I4025
sV\u67f1
p1949
I2342
sV\u6670
p1950
I2404
sV\u62f3
p1951
I1602
sV\u6572
p1952
I2011
sV\u61f5
p1953
I4026
sV\u693f
p1954
I3624
sV\u5bf9
p1955
I39
sV\u997a
p1956
I3535
sV\u55fd
p1957
I2815
sV\u547c
p1958
I860
sV\u8dc6
p1959
I3275
sV\u4f01
p1960
I329
sV\u4e80
p1961
I4027
sV\u803b
p1962
I3312
sV\u6d82
p1963
I1878
sV\u6905
p1964
I1879
sV\u4f97
p1965
I3518
sV\u6309
p1966
I895
sV\u8288
p1967
I4028
sV\u818a
p1968
I2688
sV\u5c8c
p1969
I3536
sV\u606c
p1970
I4029
sV\u9690
p1971
I1030
sV\u7115
p1972
I3537
sV\u94ef
p1973
I4092
sV\u8f96
p1974
I2401
sV\u849c
p1975
I1839
sV\u839e
p1976
I2051
sS'00UUUUU'
p1977
I4217
sV\u7ea0
p1978
I1753
sV\u5a23
p1979
I4030
sV\u98a4
p1980
I2931
sV\u5427
p1981
I625
sV\u57a6
p1982
I3277
sV\u7329
p1983
I2162
sV\u52a8
p1984
I65
sV\u4e2b
p1985
I2932
sV\u91aa
p1986
I4031
sV\u8d2d
p1987
I404
sV\u8bae
p1988
I410
sV\u6731
p1989
I1840
sV\u6233
p1990
I1068
sV\u80b4
p1991
I2520
sV\u9ab8
p1992
I4032
sV\u963b
p1993
I1271
sV\u79ba
p1994
I2933
sV\u4ec0
p1995
I397
sV\u6447
p1996
I1644
sV\u87c6
p1997
I3078
sV\u8349
p1998
I1009
sV\u62c8
p1999
I4033
sV\u6ed8
p2000
I4034
sV\u61ca
p2001
I3079
sV\u5751
p2002
I2290
sV\u76d0
p2003
I1180
sV\u8e22
p2004
I2603
sV\u6c57
p2005
I1447
sS'UUU0000'
p2006
I3278
sV\u9709
p2007
I2734
sV\u7f61
p2008
I4035
sV\u5de2
p2009
I2452
sV\u5965
p2010
I728
sV\u58e4
p2011
I2454
sV\u7830
p2012
I4036
sV\u97e6
p2013
I2306
sV\u7426
p2014
I3279
sV\u66f0
p2015
I4037
sV\u8273
p2016
I1704
sV\u6175
p2017
I3539
sS'U0UUUU'
p2018
I4038
sV\u7b79
p2019
I1336
sV\u767b
p2020
I765
sV\u54fc
p2021
I3540
sV\u507f
p2022
I1204
sV\u8e81
p2023
I2343
sV\u6b83
p2024
I2689
sV\u822a
p2025
I622
sV\u6885
p2026
I1217
sV\u6587
p2027
I176
sV\u6606
p2028
I1553
sV\u6289
p2029
I3541
sV\u7ead
p2030
I4039
sV\u5f8b
p2031
I853
sV\u9c8d
p2032
I2690
sV\u798f
p2033
I488
sV\u7a0e
p2034
I855
sV\u9095
p2035
I3280
sV\u9611
p2036
I3546
sV\u4e16
p2037
I223
sV\u821e
p2038
I989
sV\u5f20
p2039
I371
sV\u5ba3
p2040
I648
sV\u55a7
p2041
I2816
sV\u7626
p2042
I1582
sV\u52a9
p2043
I473
sV\u8fab
p2044
I3542
sV\u502a
p2045
I3080
sV\u8d2c
p2046
I2936
sS'0000U0000000'
p2047
I4040
sS'UUU000UUU'
p2048
I4041
sV\u5632
p2049
I2646
sV\u7fa1
p2050
I2402
sV\u77bb
p2051
I2604
sV\u54bd
p2052
I2937
sV\u8334
p2053
I3520
sV\u4ec1
p2054
I1261
sV\u9893
p2055
I3081
sV\u6c42
p2056
I352
sV\u88c5
p2057
I516
sV\u8944
p2058
I2455
sV\u6e32
p2059
I3376
sV\u62c9
p2060
I353
sV\u804a
p2061
I1402
sV\u9ccd
p2062
I4042
sV\u706d
p2063
I1394
sV\u5cb1
p2064
I4043
sV\u76d1
p2065
I541
sV\u5750
p2066
I825
sS'UUUU00'
p2067
I3543
sV\u5154
p2068
I2691
sV\u6e56
p2069
I557
sV\u9065
p2070
I1775
sV\u84dd
p2071
I1157
sV\u72e9
p2072
I3544
sV\u8bb4
p2073
I4044
sV\u8feb
p2074
I1337
sV\u6770
p2075
I1456
sV\u5992
p2076
I3404
sV\u5df7
p2077
I2087
sV\u5e76
p2078
I199
sV\u7af9
p2079
I1841
sV\u987a
p2080
I1070
sV\u51ff
p2081
I3082
sV\u5c94
p2082
I3405
sV\u4e01
p2083
I1457
sV\u6c82
p2084
I4045
sV\u6805
p2085
I4046
sV\u6984
p2086
I3281
sV\u8209
p2087
I4047
sV\u6388
p2088
I1197
sV\u5f0b
p2089
I3545
sV\u79be
p2090
I3083
sV\u590f
p2091
I950
sS'0000U'
p2092
I3184
sV\u5492
p2093
I3084
sV\u7194
p2094
I3282
sV\u6d17
p2095
I883
sV\u6e96
p2096
I4048
sV\u6a19
p2097
I4049
sV\u671b
p2098
I406
sV\u841d
p2099
I1913
sV\u659c
p2100
I2605
sV\u611f
p2101
I277
sV\u9e21
p2102
I1106
sV\u9b23
p2103
I4050
sS'UUUUUUU0'
p2104
I2403
sV\u5229
p2105
I185
sV\u53a8
p2106
I1781
sV\u6f2b
p2107
I1090
sV\u90aa
p2108
I2012
sV\u8c2d
p2109
I2818
sV\u609a
p2110
I4051
sV\u889c
p2111
I2767
sV\u84b2
p2112
I2606
sS'UUUUUU0UUUU'
p2113
I3085
sV\u7eb6
p2114
I4327
sV\u6865
p2115
I863
sV\u513f
p2116
I269
sV\u52be
p2117
I3086
sS'UUUUUUUU'
p2118
I999
sV\u6fc0
p2119
I818
sV\u8845
p2120
I3283
sV\u89c4
p2121
I326
sV\u9981
p2122
I4052
sV\u86c6
p2123
I4053
sV\u6249
p2124
I3547
sV\u9ecd
p2125
I2456
sV\u60ca
p2126
I889
sV\u7c4d
p2127
I1240
sV\u594f
p2128
I1507
sV\u5353
p2129
I2244
sV\u54d2
p2130
I2607
sV\u5055
p2131
I4054
sV\u4ed6
p2132
I68
sV\u6a59
p2133
I3087
sV\u68da
p2134
I2457
sV\u85dc
p2135
I3549
sV\u8717
p2136
I2819
sV\u5fe0
p2137
I2052
sV\u5b63
p2138
I609
sV\u60fa
p2139
I4055
sV\u5567
p2140
I2938
sV\u5269
p2141
I1326
sV\u53e8
p2142
I4056
sV\u4ee8
p2143
I4057
sV\u60b4
p2144
I3538
sV\u5f29
p2145
I3550
sS'00000'
p2146
I1173
sV\u5ef6
p2147
I951
sV\u9a79
p2148
I3088
sV\u5bf8
p2149
I1810
sV\u78fa
p2150
I3551
sV\u547d
p2151
I450
sV\u917f
p2152
I2013
sV\u52fe
p2153
I2163
sV\u9000
p2154
I719
sV\u7483
p2155
I1554
sV\u7785
p2156
I3284
sS'UUUUUU00'
p2157
I3140
sV\u9a87
p2158
I4059
sV\u5364
p2159
I4060
sV\u5f0a
p2160
I2405
sV\u820c
p2161
I1555
sV\u70ac
p2162
I3905
sV\u6c93
p2163
I2939
sV\u4e14
p2164
I793
sV\u7599
p2165
I2940
sV\u5b9d
p2166
I591
sV\u5a1c
p2167
I1250
sV\u5e9f
p2168
I1538
sV\u6020
p2169
I2693
sV\u6da9
p2170
I2820
sV\u8c28
p2171
I1985
sV\u70ab
p2172
I2515
sV\u4f2a
p2173
I2053
sV\u722c
p2174
I1754
sV\u552e
p2175
I482
sV\u5830
p2176
I3285
sV\u5cb3
p2177
I1645
sV\u53df
p2178
I3685
sV\u65b9
p2179
I61
sV\u673a
p2180
I69
sV\u8bbd
p2181
I2608
sV\u4ebf
p2182
I401
sV\u6d3e
p2183
I900
sV\u94c3
p2184
I2458
sV\u9644
p2185
I964
sV\u6d60
p2186
I4062
sV\u5c48
p2187
I2197
sV\u63cd
p2188
I4063
sV\u86cf
p2189
I4064
sV\u89d1
p2190
I3286
sV\u6850
p2191
I2245
sV\u4e54
p2192
I1666
sV\u72d7
p2193
I970
sV\u5458
p2194
I134
sV\u575a
p2195
I800
sV\u5bdd
p2196
I2941
sV\u7edf
p2197
I322
sV\u6362
p2198
I919
sV\u67e5
p2199
I296
sV\u6664
p2200
I2198
sV\u6966
p2201
I4065
sV\u70eb
p2202
I2246
sV\u73ed
p2203
I616
sV\u76ef
p2204
I2301
sV\u85d0
p2205
I4066
sV\u5ff5
p2206
I656
sV\u5e74
p2207
I18
sV\u62f7
p2208
I3553
sV\u7168
p2209
I4067
sV\u6478
p2210
I1783
sV\u8bfd
p2211
I4068
sV\u4eff
p2212
I1667
sV\u9080
p2213
I1375
sV\u5403
p2214
I324
sV\u5382
p2215
I974
sV\u7684
p2216
I2
sV\u5a07
p2217
I2821
sV\u9986
p2218
I691
sV\u7f8a
p2219
I1498
sV\u660f
p2220
I2164
sV\u4f6c
p2221
I2344
sV\u8c13
p2222
I1430
sV\u81c2
p2223
I2378
sV\u4e94
p2224
I499
sV\u5217
p2225
I768
sV\u9519
p2226
I726
sV\u7a9c
p2227
I2822
sV\u9e1f
p2228
I1458
sV\u80a0
p2229
I1499
sV\u63a2
p2230
I1162
sV\u8d29
p2231
I1723
sS'UUUUUUUUUUUUUUUUUUUUUUUUUUUUUU'
p2232
I3931
sV\u7bc6
p2233
I4070
sV\u72ac
p2234
I1880
sV\u75ae
p2235
I4071
sV\u5931
p2236
I402
sV\u78b0
p2237
I1431
sS'UUU000UUU0000'
p2238
I3554
sV\u6237
p2239
I424
sV\u6539
p2240
I273
sV\u84b8
p2241
I2089
sV\u87ba
p2242
I2291
sV\u8dbe
p2243
I2695
sV\u5141
p2244
I1620
sV\u5443
p2245
I3287
sV\u53c2
p2246
I445
sV\u96c4
p2247
I1417
sV\u59c6
p2248
I1724
sV\u914d
p2249
I781
sV\u604b
p2250
I1459
sS'UU0000'
p2251
I2668
sV\u62cc
p2252
I2406
sV\u664f
p2253
I3555
sV\u6bd2
p2254
I735
sV\u4f55
p2255
I337
sV\u4ed4
p2256
I2090
sV\u5978
p2257
I2237
sV\u7559
p2258
I543
sV\u4fa5
p2259
I3289
sV\u5b5d
p2260
I1811
sV\u5dde
p2261
I237
sV\u60e0
p2262
I1191
sV\u8463
p2263
I1118
sV\u738b
p2264
I580
sV\u6765
p2265
I22
sV\u86e4
p2266
I2823
sV\u89e6
p2267
I1251
sV\u6d69
p2268
I1705
sV\u6ce8
p2269
I420
sV\u706b
p2270
I376
sV\u8fea
p2271
I1252
sV\u736d
p2272
I3557
sV\u72ec
p2273
I662
sV\u95ee
p2274
I261
sV\u9971
p2275
I1603
sV\u58f0
p2276
I551
sV\u7c73
p2277
I453
sV\u9149
p2278
I3558
sV\u7ef4
p2279
I620
sV\u6e7f
p2280
I1755
sV\u5583
p2281
I3559
sS'UUUUUUUUU'
p2282
I1228
sV\u9704
p2283
I3443
sV\u5b87
p2284
I1785
sV\u5806
p2285
I1914
sV\u7c89
p2286
I995
sV\u618b
p2287
I3089
sV\u93d6
p2288
I4072
sV\u840e
p2289
I2199
sV\u4e95
p2290
I1943
sV\u6f14
p2291
I535
sV\u9499
p2292
I2345
sV\u7518
p2293
I1460
sV\u8d2e
p2294
I3561
sV\u7a9d
p2295
I1944
sV\u8346
p2296
I2516
sV\u9f9f
p2297
I2697
sV\u8237
p2298
I3797
sV\u80a1
p2299
I395
sV\u8d28
p2300
I405
sV\u4e2a
p2301
I19
sV\u94b3
p2302
I3482
sV\u78b1
p2303
I2698
sV\u7eb5
p2304
I1604
sV\u7f34
p2305
I1347
sV\u83b7
p2306
I372
sV\u8036
p2307
I2825
sV\u4fde
p2308
I2181
sV\u7ef7
p2309
I3563
sV\u4fbf
p2310
I594
sV\u5634
p2311
I1650
sV\u90c1
p2312
I1583
sV\u8361
p2313
I1844
sV\u5242
p2314
I1539
sV\u96c5
p2315
I1241
sV\u7bc7
p2316
I1557
sV\u6e0d
p2317
I2609
sV\u61cb
p2318
I4073
sV\u9e4a
p2319
I3564
sV\u62cd
p2320
I558
sV\u67cf
p2321
I1945
sV\u5f8c
p2322
I4007
sV\u4ed5
p2323
I2352
sV\u53d7
p2324
I202
sV\u7c38
p2325
I4074
sV\u5565
p2326
I1584
sV\u50bb
p2327
I2517
sV\u5c5e
p2328
I759
sV\u80e1
p2329
I1212
sS'UUUUUUUU0'
p2330
I4075
sV\u7f3a
p2331
I1051
sV\u6866
p2332
I3565
sV\u72ed
p2333
I2610
sV\u9970
p2334
I1786
sV\u5df3
p2335
I4076
sV\u7ef5
p2336
I2459
sV\u6076
p2337
I1479
sV\u75a4
p2338
I4077
sV\u667a
p2339
I713
sV\u6b7c
p2340
I3566
sV\u6c7e
p2341
I2407
sV\u9001
p2342
I601
sV\u5180
p2343
I2518
sV\u9605
p2344
I1242
sV\u5784
p2345
I1757
sV\u9886
p2346
I417
sV\u5c09
p2347
I3290
sV\u5e8a
p2348
I1291
sV\u820d
p2349
I1403
sV\u638c
p2350
I1311
sV\u6811
p2351
I1091
sV\u6e15
p2352
I4078
sV\u5317
p2353
I193
sV\u7096
p2354
I2519
sV\u7fc5
p2355
I2292
sV\u5b9c
p2356
I983
sV\u5f1f
p2357
I1418
sV\u6e44
p2358
I3897
sV\u6021
p2359
I3291
sV\u62a2
p2360
I879
sV\u6625
p2361
I801
sS'0000U0U00U0000U0U00'
p2362
I4079
sV\u6b27
p2363
I652
sV\u68a6
p2364
I805
sV\u8c29
p2365
I4080
sV\u6da8
p2366
I653
sV\u7949
p2367
I4081
sV\u6eaa
p2368
I1688
sV\u94ae
p2369
I3094
sV\u5ab2
p2370
I4082
sV\u7fb4
p2371
I4083
sV\u6a3d
p2372
I4084
sV\u8bbc
p2373
I2408
sV\u6cbe
p2374
I2611
sV\u9041
p2375
I3567
sV\u51c0
p2376
I1148
sV\u5543
p2377
I2521
sV\u72c2
p2378
I1149
sV\u9645
p2379
I446
sV\u8bcd
p2380
I1192
sV\u814b
p2381
I3568
sV\u5eca
p2382
I2522
sV\u624d
p2383
I407
sV\u83cc
p2384
I1605
sV\u674f
p2385
I2091
sV\u64ce
p2386
I2409
sV\u6851
p2387
I1986
sV\u9e26
p2388
I2826
sV\u6d53
p2389
I1310
sV\u4ea2
p2390
I3292
sV\u8fd4
p2391
I1213
sV\u5357
p2392
I153
sV\u50d6
p2393
I4085
sS'UUUUUUUUUUUUUU'
p2394
I2460
sV\u75d8
p2395
I2699
sV\u795b
p2396
I4086
sV\u8d4e
p2397
I2297
sV\u9cde
p2398
I3293
sV\u51d1
p2399
I2293
sV\u6563
p2400
I1119
sV\u62e2
p2401
I2942
sV\u6b67
p2402
I2346
sV\u8de8
p2403
I1297
sV\u516b
p2404
I896
sV\u4eea
p2405
I1163
sV\u53ec
p2406
I1052
sV\u54ee
p2407
I3569
sV\u79f0
p2408
I163
sV\u5352
p2409
I4087
sV\u5c7f
p2410
I2700
sV\u8377
p2411
I1621
sV\u80f6
p2412
I1987
sV\u6479
p2413
I3294
sV\u65f8
p2414
I4088
sV\u4f7f
p2415
I390
sV\u6cfe
p2416
I3570
sV\u5200
p2417
I1181
sV\u9102
p2418
I2165
sV\u5404
p2419
I262
sV\u9887
p2420
I2014
sV\u9f89
p2421
I4089
sV\u5e08
p2422
I461
sV\u828b
p2423
I3295
sV\u7956
p2424
I1219
sV\u800c
p2425
I107
sV\u6912
p2426
I1689
sV\u6d95
p2427
I3296
sV\u6c14
p2428
I259
sV\u5316
p2429
I179
sV\u5618
p2430
I3297
sV\u5a9b
p2431
I2461
sV\u751a
p2432
I841
sV\u9c9f
p2433
I3068
sV\u65a5
p2434
I1946
sV\u8424
p2435
I3095
sV\u68a7
p2436
I2462
sV\u85b0
p2437
I3298
sV\u8fa9
p2438
I1988
sV\u4e28
p2439
I2613
sV\u52ab
p2440
I2248
sV\u8d2a
p2441
I1585
sV\u54af
p2442
I2701
sV\u7bb1
p2443
I1120
sV\u6e89
p2444
I3572
sV\u7eb3
p2445
I906
sV\u5c34
p2446
I2410
sV\u8336
p2447
I965
sV\u8638
p2448
I2943
sS'0UUU'
p2449
I3573
sV\u683c
p2450
I295
sV\u6cbf
p2451
I1480
sV\u6f3e
p2452
I3096
sV\u75c5
p2453
I341
sV\u9cb6
p2454
I3299
sV\u7a92
p2455
I2827
sV\u804c
p2456
I513
sV\u674e
p2457
I504
sV\u8bd1
p2458
I1842
sV\u4ed3
p2459
I1558
sV\u5356
p2460
I581
sV\u4ea5
p2461
I3638
sV\u953b
p2462
I1843
sV\u7cdf
p2463
I2294
sV\u63e1
p2464
I1508
sV\u7a91
p2465
I2614
sS'UUUUUUUUUUUUUUUUUUUUUUUU'
p2466
I3967
sV\u6162
p2467
I1020
sV\u65e5
p2468
I16
sV\u6b66
p2469
I540
sV\u4fe9
p2470
I1706
sS'0000U0000'
p2471
I2523
sV\u6d6a
p2472
I790
sV\u51ed
p2473
I1303
sV\u74ef
p2474
I3077
sV\u7bf1
p2475
I4093
sV\u9a70
p2476
I1989
sV\u7ef3
p2477
I2200
sV\u9972
p2478
I2615
sV\u733f
p2479
I4094
sV\u87f9
p2480
I1500
sV\u8e1d
p2481
I3300
sV\u69fd
p2482
I1622
sV\u7280
p2483
I2524
sV\u9505
p2484
I1623
sV\u5484
p2485
I3574
sV\u7f09
p2486
I2201
sV\u810d
p2487
I4095
sV\u808c
p2488
I1787
sV\u640f
p2489
I2295
sV\u6a90
p2490
I3301
sV\u4e13
p2491
I306
sV\u7eef
p2492
I3575
sV\u9017
p2493
I2202
sV\u7396
p2494
I4096
sV\u7719
p2495
I3097
sV\u9698
p2496
I4097
sS'000U0'
p2497
I1915
sV\u759a
p2498
I3576
sV\u989c
p2499
I1540
sV\u7f9e
p2500
I2616
sV\u6321
p2501
I1646
sS'00U00U'
p2502
I2122
sV\u64a4
p2503
I1461
sV\u6f29
p2504
I3302
sV\u4ea8
p2505
I2525
sV\u522b
p2506
I238
sV\u54c6
p2507
I2865
sV\u50ac
p2508
I1788
sV\u542f
p2509
I816
sV\u57ae
p2510
I3098
sV\u6d9f
p2511
I3577
sV\u8dcb
p2512
I3157
sV\u8d4b
p2513
I2526
sS'0U00U0U0'
p2514
I4098
sV\u8fbe
p2515
I275
sV\u5341
p2516
I268
sS'00U000'
p2517
I2702
sV\u7545
p2518
I1606
sV\u54c4
p2519
I2703
sV\u5bc6
p2520
I797
sV\u7ec8
p2521
I525
sV\u624b
p2522
I110
sV\u86d9
p2523
I3176
sV\u80cc
p2524
I842
sV\u4e53
p2525
I2944
sV\u89d2
p2526
I812
sV\u7b4f
p2527
I3579
sV\u9057
p2528
I984
sV\u53d6
p2529
I399
sV\u9759
p2530
I1158
sV\u76d8
p2531
I714
sV\u88ce
p2532
I4099
sV\u795d
p2533
I1273
sV\u9524
p2534
I2296
sV\u6361
p2535
I1756
sV\u9cca
p2536
I4188
sV\u8be6
p2537
I1348
sV\u4f69
p2538
I2015
sV\u6ee8
p2539
I1518
sV\u8dea
p2540
I2016
sV\u516d
p2541
I849
sV\u77ee
p2542
I3580
sV\u5e73
p2543
I158
sV\u65fa
p2544
I1758
sV\u4ffe
p2545
I4101
sV\u7281
p2546
I4102
sV\u5300
p2547
I3100
sV\u5783
p2548
I985
sV\u9002
p2549
I806
sV\u7504
p2550
I2946
sV\u5987
p2551
I1057
sV\u5522
p2552
I3851
sV\u5f08
p2553
I2527
sV\u5c0a
p2554
I1509
sV\u608d
p2555
I2463
sV\u858f
p2556
I3581
sV\u660e
p2557
I154
sV\u8f93
p2558
I1130
sV\u85af
p2559
I2464
sV\u9699
p2560
I2829
sV\u5b9b
p2561
I2704
sV\u989d
p2562
I688
sV\u591c
p2563
I742
sV\u82a1
p2564
I4104
sV\u6320
p2565
I2528
sV\u67a3
p2566
I2830
sV\u8069
p2567
I4110
sV\u4ea9
p2568
I1881
sV\u73ab
p2569
I2617
sV\u6c2a
p2570
I3303
sV\u70ad
p2571
I1947
sV\u75af
p2572
I1462
sV\u962e
p2573
I3304
sV\u53ed
p2574
I2831
sS'UUU0'
p2575
I1725
sV\u8236
p2576
I3101
sV\u643a
p2577
I1229
sV\u5d58
p2578
I3790
sV\u4e3e
p2579
I373
sV\u52c1
p2580
I4105
sV\u8c61
p2581
I556
sV\u57c3
p2582
I1103
sV\u9042
p2583
I3102
sV\u94c5
p2584
I2529
sV\u5544
p2585
I3582
sV\u5a46
p2586
I1541
sV\u5ec9
p2587
I1726
sV\u7236
p2588
I720
sV\u614c
p2589
I2249
sV\u65cf
p2590
I632
sV\u864e
p2591
I1323
sS'UUUU'
p2592
I548
sV\u500f
p2593
I4106
sV\u6cd5
p2594
I95
sV\u8d54
p2595
I1243
sV\u5256
p2596
I2705
sV\u96d9
p2597
I4108
sV\u745a
p2598
I2833
sV\u98dd
p2599
I4109
sV\u6062
p2600
I1519
sV\u7686
p2601
I2092
sV\u6ee9
p2602
I1363
sV\u8f68
p2603
I1624
sV\u53eb
p2604
I952
sV\u8c6a
p2605
I1084
sV\u70ed
p2606
I377
sV\u516c
p2607
I35
sV\u95ef
p2608
I1727
sV\u5b70
p2609
I3461
sV\u7ff3
p2610
I4111
sV\u8392
p2611
I4112
sV\u6276
p2612
I1882
sV\u66f9
p2613
I2123
sV\u6715
p2614
I4113
sV\u8bfb
p2615
I641
sV\u697c
p2616
I617
sV\u64d2
p2617
I3305
sV\u6e7e
p2618
I1058
sV\u5201
p2619
I4114
sV\u5ae6
p2620
I4115
sV\u9082
p2621
I4116
sV\u7405
p2622
I3306
sV\u5584
p2623
I738
sV\u5907
p2624
I458
sV\u9a86
p2625
I4117
sV\u5f88
p2626
I201
sV\u5996
p2627
I2834
sV\u800d
p2628
I2054
sV\u6f13
p2629
I2835
sV\u8042
p2630
I3194
sV\u7619
p2631
I3602
sV\u9798
p2632
I4119
sV\u7b1b
p2633
I3583
sV\u781d
p2634
I4120
sV\u701b
p2635
I4226
sV\u5e9e
p2636
I2347
sV\u63a0
p2637
I3104
sV\u80a2
p2638
I2348
sV\u8425
p2639
I475
sV\u65a4
p2640
I1138
sV\u95f0
p2641
I3369
sV\u6e29
p2642
I574
sV\u8fa8
p2643
I2126
sV\u732b
p2644
I1021
sV\u6caa
p2645
I1483
sV\u502d
p2646
I4121
sV\u51ac
p2647
I1501
sV\u552f
p2648
I1253
sV\u76ae
p2649
I953
sV\u5a31
p2650
I1647
sV\u5bb0
p2651
I2837
sV\u761f
p2652
I4122
sS'UU0U'
p2653
I4123
sV\u64ba
p2654
I3307
sV\u683d
p2655
I2948
sV\u8d3f
p2656
I1948
sV\u955a
p2657
I4124
sV\u5241
p2658
I3105
sV\u73c0
p2659
I2706
sV\u5c4a
p2660
I753
sV\u5e61
p2661
I4345
sV\u5947
p2662
I785
sV\u4fd0
p2663
I2935
sV\u8fe9
p2664
I3533
sV\u7cca
p2665
I2093
sV\u604d
p2666
I4125
sV\u82dc
p2667
I4126
sV\u654f
p2668
I1395
sV\u814c
p2669
I2884
sS'00000U0'
p2670
I4128
sV\u4f53
p2671
I102
sV\u68d2
p2672
I1707
sV\u6c55
p2673
I2838
sV\u85cf
p2674
I907
sV\u919b
p2675
I2895
sV\u785d
p2676
I2349
sV\u59dc
p2677
I2203
sV\u7ede
p2678
I3618
sV\u83e0
p2679
I2618
sV\u85e4
p2680
I2298
sV\u7b50
p2681
I4130
sS'UUUUUUUUUUUUUUUUUUU'
p2682
I3585
sV\u4fe8
p2683
I3107
sV\u536b
p2684
I702
sV\u6cea
p2685
I1292
sV\u906d
p2686
I633
sV\u956f
p2687
I3308
sV\u76ee
p2688
I169
sV\u9a71
p2689
I1812
sV\u5bf0
p2690
I4131
sV\u5df4
p2691
I364
sV\u6177
p2692
I3309
sV\u74a8
p2693
I4132
sV\u8679
p2694
I1949
sV\u9cd5
p2695
I4133
sV\u6b7b
p2696
I486
sV\u7634
p2697
I4134
sV\u6d54
p2698
I4135
sV\u7f81
p2699
I3108
sV\u5385
p2700
I975
sV\u5e87
p2701
I3109
sV\u4e00
p2702
I3
sV\u848b
p2703
I1916
sV\u878d
p2704
I736
sV\u660c
p2705
I1463
sV\u8c10
p2706
I2094
sV\u6893
p2707
I2949
sV\u5199
p2708
I813
sV\u7985
p2709
I2800
sV\u5c9b
p2710
I867
sS'UUUUUUU0U'
p2711
I4137
sV\u5e1c
p2712
I2856
sV\u7a9f
p2713
I3110
sV\u65a1
p2714
I4138
sV\u9131
p2715
I3586
sV\u60a3
p2716
I663
sV\u6fa7
p2717
I3587
sV\u63a5
p2718
I265
sV\u4ea7
p2719
I139
sV\u8d26
p2720
I1077
sV\u54ab
p2721
I3588
sV\u9706
p2722
I2465
sV\u97ad
p2723
I2828
sV\u72af
p2724
I802
sV\u5389
p2725
I1883
sV\u78b3
p2726
I2018
sV\u73b2
p2727
I2412
sV\u5bb5
p2728
I2250
sV\u5a34
p2729
I4139
sV\u6536
p2730
I195
sV\u6fe1
p2731
I3075
sV\u6cbb
p2732
I396
sV\u633a
p2733
I1990
sV\u8fbd
p2734
I1464
sV\u5440
p2735
I2350
sV\u5742
p2736
I3590
sV\u7ec7
p2737
I743
sV\u79c9
p2738
I4140
sV\u82cf
p2739
I749
sV\u614e
p2740
I1419
sV\u8dd1
p2741
I897
sV\u6bd5
p2742
I915
sV\u76d7
p2743
I1293
sV\u9cb8
p2744
I2351
sV\u535a
p2745
I438
sV\u59fb
p2746
I2121
sV\u7adf
p2747
I828
sV\u795e
p2748
I554
sV\u8737
p2749
I4141
sV\u6d66
p2750
I1504
sV\u8868
p2751
I138
sV\u6b6a
p2752
I2530
sV\u77ed
p2753
I807
sV\u566c
p2754
I2839
sV\u716e
p2755
I1708
sV\u5df1
p2756
I213
sV\u58f3
p2757
I1846
sV\u7f72
p2758
I1312
sV\u5a74
p2759
I1298
sV\u6078
p2760
I4143
sV\u6cfb
p2761
I2353
sV\u637a
p2762
I4144
sV\u8ffd
p2763
I868
sS'UUUUUUU00'
p2764
I2531
sV\u5014
p2765
I4145
sV\u9501
p2766
I1481
sV\u5480
p2767
I4146
sV\u9003
p2768
I1053
sV\u6c6a
p2769
I1790
sV\u5305
p2770
I447
sV\u7c97
p2771
I1678
sV\u5d4c
p2772
I2950
sV\u74e6
p2773
I1759
sV\u90ed
p2774
I1748
sV\u670d
p2775
I381
sV\u868c
p2776
I2707
sV\u620f
p2777
I908
sV\u916c
p2778
I1625
sV\u6c90
p2779
I3111
sV\u6813
p2780
I2619
sV\u6b84
p2781
I4006
sV\u55ef
p2782
I3313
sV\u9119
p2783
I3112
sV\u5c1b
p2784
I3591
sV\u539a
p2785
I1448
sV\u7f1d
p2786
I1814
sV\u5e9c
p2787
I391
sV\u5a1f
p2788
I2951
sV\u9ec4
p2789
I419
sV\u8521
p2790
I2413
sS'UUUUUUUUUUUUU0'
p2791
I4147
sV\u67a2
p2792
I2532
sV\u6325
p2793
I1376
sV\u62a4
p2794
I505
sV\u4e27
p2795
I1586
sV\u6da6
p2796
I1274
sV\u68a8
p2797
I2055
sV\u542b
p2798
I1062
sV\u572d
p2799
I3113
sV\u7833
p2800
I1991
sV\u7fb2
p2801
I3314
sV\u73b7
p2802
I4148
sV\u60b8
p2803
I2952
sV\u83ba
p2804
I3315
sV\u4f3d
p2805
I2840
sV\u8d58
p2806
I3316
sV\u6d74
p2807
I1992
sV\u9541
p2808
I2953
sV\u54c0
p2809
I2124
sV\u5043
p2810
I3592
sV\u72c4
p2811
I3114
sV\u5949
p2812
I1884
sV\u6d2e
p2813
I3895
sV\u6d51
p2814
I2167
sV\u76f9
p2815
I3414
sV\u6853
p2816
I3115
sV\u6fd2
p2817
I2708
sV\u732c
p2818
I3562
sV\u55d6
p2819
I3317
sV\u70d8
p2820
I2841
sV\u5f5d
p2821
I3318
sV\u7edc
p2822
I774
sV\u6151
p2823
I3632
sV\u6063
p2824
I4149
sV\u8365
p2825
I4150
sV\u74a7
p2826
I4151
sV\u6de6
p2827
I4152
sV\u946b
p2828
I2954
sV\u7726
p2829
I4153
sV\u526f
p2830
I697
sV\u5cf0
p2831
I913
sV\u7a46
p2832
I1845
sV\u53d2
p2833
I3913
sV\u5b75
p2834
I3367
sV\u65f6
p2835
I21
sV\u8179
p2836
I1885
sV\u80f8
p2837
I1847
sV\u4e7e
p2838
I2955
sV\u8f7d
p2839
I941
sV\u8eab
p2840
I203
sS'UUUUUUUUU00'
p2841
I4154
sV\u76d4
p2842
I3116
sV\u5481
p2843
I4155
sV\u9500
p2844
I497
sS'UUUUU00'
p2845
I3633
sV\u5f87
p2846
I3320
sV\u5c06
p2847
I51
sV\u5889
p2848
I3117
sV\u638f
p2849
I2168
sV\u600e
p2850
I695
sV\u8a95
p2851
I4156
sV\u5416
p2852
I3596
sV\u7099
p2853
I3118
sV\u521a
p2854
I871
sS'000U'
p2855
I2019
sV\u62a5
p2856
I87
sV\u6324
p2857
I1559
sV\u4fa7
p2858
I1510
sV\u8c26
p2859
I2372
sV\u6ba1
p2860
I2709
sV\u75ab
p2861
I1626
sV\u6a2a
p2862
I1709
sV\u73af
p2863
I463
sV\u902e
p2864
I2169
sV\u7cb1
p2865
I3119
sV\u6ed5
p2866
I3091
sV\u4f88
p2867
I2354
sV\u8138
p2868
I1282
sV\u4f3c
p2869
I869
sV\u8bbf
p2870
I703
sV\u54c1
p2871
I152
sV\u71c3
p2872
I1465
sV\u9642
p2873
I3321
sS'0000'
p2874
I86
sV\u5948
p2875
I1648
sV\u65cb
p2876
I1886
sV\u5a4a
p2877
I4158
sV\u63cf
p2878
I1668
sV\u8d50
p2879
I3492
sV\u4e52
p2880
I2842
sV\u77d7
p2881
I3599
sV\u70d9
p2882
I2956
sV\u7edd
p2883
I817
sV\u5bdf
p2884
I833
sV\u585e
p2885
I1272
sV\u81e3
p2886
I2620
sV\u793a
p2887
I160
sV\u82e5
p2888
I1050
sV\u7267
p2889
I1993
sV\u59d1
p2890
I1560
sV\u95eb
p2891
I3322
sV\u56ed
p2892
I493
sV\u9f13
p2893
I1175
sV\u53ef
p2894
I50
sV\u906e
p2895
I2355
sV\u5e72
p2896
I514
sV\u94e8
p2897
I4159
sV\u60f9
p2898
I2710
sV\u6dfb
p2899
I1449
sV\u827a
p2900
I741
sV\u4efd
p2901
I479
sV\u786b
p2902
I2957
sV\u8bff
p2903
I3600
sV\u5401
p2904
I1466
sV\u5580
p2905
I2414
sV\u7682
p2906
I2621
sV\u8c49
p2907
I4160
sV\u5384
p2908
I2479
sV\u5988
p2909
I645
sS'U0U0U'
p2910
I4161
sV\u6c11
p2911
I78
sV\u4e92
p2912
I629
sV\u5496
p2913
I1950
sV\u5019
p2914
I590
sS'0UUUUUU'
p2915
I3603
sV\u5d1b
p2916
I2533
sV\u9761
p2917
I2125
sV\u5e1d
p2918
I1917
sV\u589e
p2919
I315
sV\u6421
p2920
I2794
sV\u9171
p2921
I1955
sV\u6225
p2922
I4162
sV\u6ca6
p2923
I2251
sV\u6829
p2924
I2622
sV\u69a8
p2925
I2958
sV\u752b
p2926
I2711
sV\u8aaa
p2927
I4163
sV\u562d
p2928
I3604
sV\u77ac
p2929
I1710
sV\u932f
p2930
I4164
sV\u90ae
p2931
I1187
sV\u5c31
p2932
I63
sV\u73c9
p2933
I4165
sV\u7eb2
p2934
I3120
sV\u5bb4
p2935
I1587
sS'00U'
p2936
I500
sV\u6d3b
p2937
I183
sV\u4e3d
p2938
I959
sV\u6ecb
p2939
I1607
sV\u76f4
p2940
I308
sV\u5143
p2941
I103
sV\u76c2
p2942
I3605
sV\u5a77
p2943
I2623
sV\u83a0
p2944
I4166
sV\u634f
p2945
I2482
sV\u80ce
p2946
I1669
sS'000'
p2947
I157
sV\u6bd4
p2948
I215
sV\u5757
p2949
I1044
sV\u5b5f
p2950
I3121
sV\u98de
p2951
I610
sV\u8461
p2952
I1649
sV\u65e0
p2953
I156
sV\u8f67
p2954
I3607
sV\u6869
p2955
I2073
sV\u97ec
p2956
I3122
sV\u62fc
p2957
I1503
sV\u5c71
p2958
I218
sV\u8e29
p2959
I1792
sV\u5973
p2960
I174
sV\u4fa8
p2961
I2166
sS'U0UU'
p2962
I4168
sV\u9a81
p2963
I4169
sV\u832b
p2964
I2274
sV\u8881
p2965
I2471
sV\u9502
p2966
I2890
sV\u5185
p2967
I127
sV\u7f06
p2968
I3324
sV\u5b89
p2969
I111
sV\u4f86
p2970
I4170
sV\u840c
p2971
I1159
sV\u71ac
p2972
I1789
sV\u8f91
p2973
I1502
sV\u6e10
p2974
I992
sV\u8a93
p2975
I2534
sV\u6d12
p2976
I2356
sV\u952f
p2977
I2712
sV\u9716
p2978
I2843
sV\u5218
p2979
I996
sV\u9e2d
p2980
I1793
sV\u56db
p2981
I357
sV\u6f88
p2982
I2999
sV\u51c4
p2983
I3325
sV\u6620
p2984
I1139
sS'U00U'
p2985
I3608
sV\u6ca7
p2986
I3124
sV\u4f26
p2987
I1045
sV\u8ba9
p2988
I189
sV\u892a
p2989
I2844
sV\u542c
p2990
I708
sV\u90af
p2991
I2535
sV\u732e
p2992
I1107
sV\u5ab3
p2993
I2713
sV\u57a0
p2994
I4171
sV\u7834
p2995
I605
sV\u64b7
p2996
I4172
sV\u9508
p2997
I3637
sV\u83b9
p2998
I2625
sV\u835e
p2999
I2845
sV\u6b3e
p3000
I421
sV\u97c1
p3001
I4173
sV\u9640
p3002
I2960
sV\u52c3
p3003
I2357
sV\u4fea
p3004
I4174
sV\u86cb
p3005
I1364
sV\u7ae3
p3006
I3532
sV\u634e
p3007
I4175
sV\u8fd1
p3008
I125
sV\u4e50
p3009
I439
sV\u6d52
p3010
I4176
sV\u8854
p3011
I2096
sV\u54d7
p3012
I3125
sV\u9756
p3013
I2127
sV\u53d9
p3014
I1561
sV\u9edb
p3015
I4177
sV\u515a
p3016
I803
sV\u5ddd
p3017
I721
sV\u98df
p3018
I334
sV\u8749
p3019
I3244
sV\u9510
p3020
I2287
sV\u6562
p3021
I1324
sV\u6064
p3022
I2536
sV\u8f66
p3023
I48
sV\u992e
p3024
I3609
sV\u56eb
p3025
I3610
sV\u7766
p3026
I3328
sV\u95ed
p3027
I1164
sV\u70ef
p3028
I3611
sV\u68fa
p3029
I2358
sV\u5ff1
p3030
I3450
sV\u9e70
p3031
I2537
sV\u6212
p3032
I1692
sV\u8776
p3033
I2170
sV\u4efb
p3034
I317
sV\u817a
p3035
I2204
sV\u5b51
p3036
I4179
sV\u7701
p3037
I248
sS'U0000'
p3038
I3016
sV\u5203
p3039
I2714
sV\u5582
p3040
I2783
sV\u6db8
p3041
I3139
sV\u5b97
p3042
I1512
sV\u7c07
p3043
I3126
sS'00000000'
p3044
I3612
sV\u838e
p3045
I2128
sV\u4f11
p3046
I936
sV\u6e90
p3047
I596
sV\u70c2
p3048
I1760
sV\u5018
p3049
I4136
sV\u5417
p3050
I501
sV\u5319
p3051
I1951
sV\u5e1b
p3052
I4180
sV\u6e2d
p3053
I2962
sV\u9c9c
p3054
I638
sV\u5b9e
p3055
I112
sV\u8721
p3056
I2846
sV\u6e1a
p3057
I4181
sV\u80a4
p3058
I1670
sV\u6c27
p3059
I1542
sV\u4fa6
p3060
I2097
sV\u762b
p3061
I2098
sS'UUUUU'
p3062
I890
sV\u54ac
p3063
I1711
sV\u53ae
p3064
I2847
sV\u5f31
p3065
I1218
sV\u9e49
p3066
I3584
sV\u7a33
p3067
I927
sV\u8572
p3068
I4182
sV\u67b6
p3069
I902
sV\u977c
p3070
I4005
sV\u82b8
p3071
I4185
sV\u4e3b
p3072
I131
sV\u541e
p3073
I2174
sV\u6d3d
p3074
I2626
sV\u6cbc
p3075
I4187
sV\u8bbe
p3076
I323
sV\u7741
p3077
I2715
sV\u96c0
p3078
I2963
sV\u5243
p3079
I2964
sV\u6cca
p3080
I2185
sV\u5145
p3081
I770
sV\u5fc6
p3082
I1108
sV\u7b49
p3083
I101
sS'UUUU0'
p3084
I2020
sV\u664b
p3085
I1608
sV\u59ca
p3086
I4189
sV\u6da3
p3087
I4190
sV\u701a
p3088
I3949
sV\u51cc
p3089
I1262
sV\u4f51
p3090
I2716
sV\u9604
p3091
I4058
sV\u88d4
p3092
I2359
sV\u5457
p3093
I3127
sV\u52d8
p3094
I2467
sV\u86ce
p3095
I4127
sV\u5bde
p3096
I2538
sV\u6761
p3097
I441
sV\u6263
p3098
I1588
sV\u65e2
p3099
I1275
sV\u8165
p3100
I3128
sV\u95fd
p3101
I2848
sV\u766b
p3102
I4191
sV\u94ec
p3103
I4192
sV\u706f
p3104
I966
sV\u53ee
p3105
I3330
sV\u5f71
p3106
I307
sV\u7ef0
p3107
I3613
sV\u9a73
p3108
I2299
sV\u5df2
p3109
I100
sV\u9975
p3110
I4193
sV\u6cfc
p3111
I2056
sV\u8bfe
p3112
I1013
sV\u9700
p3113
I368
sV\u5085
p3114
I2129
sV\u5e06
p3115
I2717
sV\u9a89
p3116
I4194
sV\u818f
p3117
I4195
sV\u620e
p3118
I3614
sV\u4e91
p3119
I674
sV\u4f10
p3120
I2360
sV\u7597
p3121
I891
sV\u901a
p3122
I115
sV\u7b5b
p3123
I3106
sV\u8884
p3124
I3744
sV\u63a3
p3125
I3615
sV\u80a5
p3126
I976
sV\u6124
p3127
I2021
sV\u6da7
p3128
I4197
sV\u6c79
p3129
I2979
sS'UUUUUUUUUUU0000'
p3130
I4198
sV\u57ab
p3131
I2448
sV\u682a
p3132
I2130
sV\u552c
p3133
I3129
sV\u51af
p3134
I2300
sV\u522e
p3135
I2022
sV\u7eb1
p3136
I1728
sV\u8309
p3137
I3617
sV\u5bb3
p3138
I670
sV\u5934
p3139
I233
sV\u62b9
p3140
I2131
sV\u8338
p3141
I2627
sV\u6cbd
p3142
I2718
sV\u8d3c
p3143
I2415
sV\u96c1
p3144
I2850
sV\u7740
p3145
I133
sV\u5144
p3146
I1848
sV\u53e0
p3147
I2539
sV\u5ac9
p3148
I3331
sV\u64cd
p3149
I928
sV\u654c
p3150
I1761
sV\u624e
p3151
I1421
sV\u6ed1
p3152
I1235
sV\u4f50
p3153
I3130
sV\u88d5
p3154
I2510
sV\u7656
p3155
I3333
sS'UUUUUUUUUUUUUUU'
p3156
I2416
sV\u505a
p3157
I254
sV\u9cdd
p3158
I3619
sV\u79df
p3159
I942
sV\u6760
p3160
I2057
sV\u63e3
p3161
I3334
sV\u6e3a
p3162
I3132
sV\u4e66
p3163
I400
sV\u82bd
p3164
I2628
sV\u77eb
p3165
I4199
sV\u9ae6
p3166
I3620
sV\u54ed
p3167
I1283
sV\u556c
p3168
I4200
sV\u51ef
p3169
I1690
sV\u5f70
p3170
I2540
sV\u5974
p3171
I2719
sV\u65f7
p3172
I2965
sV\u6676
p3173
I2252
sV\u82f9
p3174
I769
sV\u7119
p3175
I3335
sV\u607a
p3176
I3621
sV\u6cfd
p3177
I1520
sV\u69ff
p3178
I2966
sV\u9601
p3179
I3622
sV\u78c1
p3180
I2417
sV\u5482
p3181
I4201
sV\u9005
p3182
I4202
sV\u7184
p3183
I2629
sV\u5d07
p3184
I1952
sV\u5e86
p3185
I385
sV\u8c41
p3186
I4203
sV\u5b88
p3187
I1002
sV\u670b
p3188
I704
sV\u988a
p3189
I2851
sV\u840d
p3190
I2720
sV\u658c
p3191
I2132
sV\u810f
p3192
I1284
sV\u4e11
p3193
I1887
sV\u8f90
p3194
I2630
sV\u90b9
p3195
I3623
sV\u8815
p3196
I3133
sV\u6994
p3197
I4205
sV\u7696
p3198
I2468
sV\u5219
p3199
I575
sV\u5398
p3200
I2023
sV\u5c1d
p3201
I1543
sV\u543c
p3202
I2721
sV\u591f
p3203
I834
sV\u6a71
p3204
I3787
sV\u6323
p3205
I1953
sV\u6025
p3206
I826
sV\u8d27
p3207
I692
sV\u4ea6
p3208
I1954
sS'UUUUUU00UUUU'
p3209
I4341
sV\u8ba8
p3210
I1032
sV\u712f
p3211
I3134
sV\u54c9
p3212
I3700
sV\u5835
p3213
I1125
sV\u501f
p3214
I1092
sV\u86b6
p3215
I3906
sV\u8239
p3216
I1072
sV\u80ba
p3217
I1888
sV\u891a
p3218
I4206
sV\u79cb
p3219
I865
sS'UUU00UUU'
p3220
I3534
sV\u5343
p3221
I626
sV\u94c2
p3222
I4207
sV\u9177
p3223
I1627
sV\u7ec6
p3224
I872
sV\u5a49
p3225
I2967
sV\u78ca
p3226
I3625
sV\u62ce
p3227
I2853
sV\u8fd0
p3228
I235
sV\u4fd8
p3229
I3031
sV\u76d6
p3230
I1109
sV\u7259
p3231
I1033
sV\u53d8
p3232
I303
sV\u50da
p3233
I3135
sV\u7ade
p3234
I1034
sV\u67e0
p3235
I2541
sV\u8363
p3236
I1172
sV\u54fa
p3237
I2968
sV\u8f84
p3238
I2910
sV\u776b
p3239
I3336
sV\u916f
p3240
I3950
sV\u72ee
p3241
I1889
sV\u7ff0
p3242
I2418
sV\u5b73
p3243
I4208
sV\u9875
p3244
I2058
sV\u5598
p3245
I2765
sV\u6577
p3246
I2722
sV\u62a8
p3247
I2994
sV\u6279
p3248
I545
sV\u8f7b
p3249
I606
sV\u80fa
p3250
I3626
sV\u6c7d
p3251
I737
sV\u897f
p3252
I149
sV\u7981
p3253
I892
sV\u7800
p3254
I4209
sV\u6402
p3255
I4118
sV\u5f85
p3256
I675
sV\u6bd7
p3257
I4210
sV\u5589
p3258
I2723
sV\u5408
p3259
I159
sV\u888b
p3260
I1388
sV\u4e8f
p3261
I1544
sV\u8010
p3262
I1729
sV\u89d0
p3263
I4211
sV\u6795
p3264
I2361
sV\u6614
p3265
I2631
sV\u9a97
p3266
I956
sV\u5916
p3267
I117
sV\u5d99
p3268
I3627
sV\u5c18
p3269
I1671
sV\u6e34
p3270
I2024
sV\u7f1a
p3271
I4212
sV\u8731
p3272
I3337
sS'00U0000'
p3273
I3338
sV\u6b22
p3274
I664
sV\u717d
p3275
I2969
sV\u4e24
p3276
I161
sV\u65a9
p3277
I2542
sV\u8428
p3278
I1349
sV\u672a
p3279
I318
sV\u7bad
p3280
I1815
sV\u7eaf
p3281
I1396
sV\u54b3
p3282
I2419
sV\u57b5
p3283
I4213
sV\u9634
p3284
I1322
sV\u8936
p3285
I3628
sV\u6c38
p3286
I914
sV\u4f3a
p3287
I3339
sV\u83bd
p3288
I4214
sV\u653e
p3289
I214
sV\u79c1
p3290
I967
sV\u7840
p3291
I1244
sV\u9b42
p3292
I2133
sV\u5fc5
p3293
I583
sV\u52c7
p3294
I1165
sV\u7960
p3295
I2598
sV\u75c9
p3296
I4215
sV\u5448
p3297
I1521
sV\u68cb
p3298
I2724
sV\u574a
p3299
I2171
sV\u6bcd
p3300
I676
sV\u6d4e
p3301
I386
sV\u61d1
p3302
I4216
sV\u6050
p3303
I1035
sV\u84d3
p3304
I3653
sV\u8352
p3305
I1918
sV\u8654
p3306
I3629
sV\u5956
p3307
I572
sV\u6ee5
p3308
I2302
sV\u70db
p3309
I4218
sV\u7f5a
p3310
I1046
sV\u563b
p3311
I4219
sV\u76df
p3312
I943
sV\u7a74
p3313
I2725
sV\u6ce3
p3314
I2469
sV\u6b62
p3315
I599
sV\u62e7
p3316
I3340
sV\u65e9
p3317
I573
sV\u58eb
p3318
I361
sS'00U0'
p3319
I1405
sV\u9a6c
p3320
I286
sV\u9eef
p3321
I2855
sV\u7d6e
p3322
I2543
sV\u7070
p3323
I1713
sV\u97f5
p3324
I2470
sV\u6df9
p3325
I2633
sS'UUUUUUUUUUUUUUUUUUUUUUUUUUUUUUUUUUUUUUUUUUUUUUU'
p3326
I4220
sV\u4f7a
p3327
I4221
sV\u63fd
p3328
I2303
sV\u627c
p3329
I4222
sV\u66ff
p3330
I1484
sV\u857e
p3331
I2726
sV\u7901
p3332
I2727
sV\u566a
p3333
I2205
sV\u7f05
p3334
I1919
sV\u5e84
p3335
I1432
sV\u5207
p3336
I706
sV\u9488
p3337
I1022
sV\u680b
p3338
I2172
sS'UU0000U'
p3339
I4223
sV\u8e0f
p3340
I1730
sV\u6d8e
p3341
I4224
sV\u8111
p3342
I733
sV\u7199
p3343
I2304
sV\u8c34
p3344
I2362
sV\u6392
p3345
I502
sV\u8715
p3346
I3630
sV\u6fef
p3347
I4225
sV\u9996
p3348
I255
sS'UUUUUUU'
p3349
I990
sV\u7c98
p3350
I2728
sV\u901b
p3351
I2017
sV\u9f9a
p3352
I3631
sV\u731d
p3353
I2544
sV\u961f
p3354
I313
sV\u8c23
p3355
I1920
sV\u8ba2
p3356
I1182
sV\u4ea4
p3357
I137
sV\u6170
p3358
I2134
sV\u67aa
p3359
I1193
sV\u570b
p3360
I3341
sV\u7131
p3361
I3342
sV\u6349
p3362
I2173
sV\u7433
p3363
I2206
sV\u5272
p3364
I1890
sV\u8d39
p3365
I225
sV\u6cb8
p3366
I2729
sV\u603b
p3367
I222
sV\u633d
p3368
I2634
sV\u62bc
p3369
I2059
sV\u7941
p3370
I4227
sV\u5bc2
p3371
I2253
sV\u7ec4
p3372
I346
sV\u7247
p3373
I388
sV\u51c6
p3374
I456
sV\u54c8
p3375
I752
sS'00U0U0'
p3376
I4228
sV\u4e4f
p3377
I1562
sV\u8151
p3378
I3319
sV\u63d2
p3379
I1467
sV\u7a57
p3380
I3595
sV\u53a5
p3381
I3634
sV\u905b
p3382
I3635
sV\u68e0
p3383
I3343
sV\u8be2
p3384
I1294
sV\u7ea7
p3385
I422
sV\u6267
p3386
I835
sV\u61e6
p3387
I3636
sV\u586b
p3388
I1691
sV\u5dee
p3389
I856
sV\u5171
p3390
I380
sV\u5473
p3391
I711
sV\u53f2
p3392
I643
sV\u56f4
p3393
I732
sV\u6cf8
p3394
I2624
sV\u4ffa
p3395
I2970
sS'UUUUUU0'
p3396
I1482
sV\u9881
p3397
I1921
sV\u5f04
p3398
I2305
sV\u7387
p3399
I569
sV\u9006
p3400
I1545
sV\u9489
p3401
I2857
sV\u77ad
p3402
I3589
sV\u8c0e
p3403
I2207
sV\u8110
p3404
I4229
sV\u6593
p3405
I3136
sV\u8212
p3406
I1420
sV\u8695
p3407
I2971
sV\u6714
p3408
I2730
sV\u7b97
p3409
I709
sV\u7816
p3410
I2208
sV\u7d18
p3411
I4230
sV\u519b
p3412
I383
sV\u529d
p3413
I1628
sV\u731c
p3414
I1651
sV\u579f
p3415
I4231
sV\u9f84
p3416
I1399
sV\u8da3
p3417
I1350
sV\u6ea5
p3418
I3571
sV\u4f24
p3419
I451
sV\u63a7
p3420
I627
sV\u6c30
p3421
I3794
sV\u64a9
p3422
I3639
sV\u5320
p3423
I2972
sV\u7b2c
p3424
I206
sV\u94dc
p3425
I1590
sV\u90b1
p3426
I3344
sV\u7130
p3427
I2849
sV\u55b3
p3428
I3640
sV\u6bb7
p3429
I3345
sV\u6cb9
p3430
I642
sV\u8d38
p3431
I1059
sV\u57cc
p3432
I4232
sV\u4e3a
p3433
I17
sV\u62bd
p3434
I1276
sV\u7357
p3435
I3498
sV\u58c1
p3436
I1816
sV\u7940
p3437
I3641
sV\u7ec5
p3438
I4233
sV\u7f44
p3439
I3346
sV\u94c9
p3440
I3642
sV\u7548
p3441
I4234
sV\u6b4c
p3442
I836
sV\u4fcf
p3443
I2854
sV\u60d1
p3444
I2025
sV\u8150
p3445
I1093
sV\u6252
p3446
I2858
sV\u4f0f
p3447
I1817
sV\u8038
p3448
I3311
sV\u5cd9
p3449
I3347
sV\u7965
p3450
I1922
sV\u51db
p3451
I4235
sV\u535c
p3452
I2135
sV\u57df
p3453
I791
sV\u745e
p3454
I1338
sV\u6960
p3455
I2545
sV\u4ee5
p3456
I44
sS'U0UUUUUUUUUUUUUUUUUUU'
p3457
I4236
sS'UUU0000U0000'
p3458
I4237
sV\u7fbd
p3459
I2175
sV\u7738
p3460
I4238
sV\u7aed
p3461
I2472
sS'UUUUUUUUUUUUUUU000'
p3462
I4239
sV\u6413
p3463
I3643
sV\u5170
p3464
I559
sV\u7272
p3465
I1731
sV\u56f5
p3466
I3644
sV\u9774
p3467
I4240
sV\u8bf7
p3468
I507
sV\u6876
p3469
I1295
sV\u82cd
p3470
I2189
sV\u6d78
p3471
I2546
sV\u62fd
p3472
I2975
sV\u837c
p3473
I3348
sV\u67ff
p3474
I2363
sV\u7801
p3475
I929
sV\u9a82
p3476
I1956
sV\u5e05
p3477
I1522
sV\u5f84
p3478
I1365
sS'UUU0UU'
p3479
I4241
sV\u5409
p3480
I946
sV\u6f0f
p3481
I1714
sV\u8513
p3482
I2176
sV\u8292
p3483
I2365
sV\u6615
p3484
I3645
sV\u9896
p3485
I3137
sV\u5e9a
p3486
I3138
sV\u521d
p3487
I722
sV\u771f
p3488
I355
sV\u949e
p3489
I1957
sV\u6821
p3490
I393
sV\u8d23
p3491
I503
sV\u4e25
p3492
I565
sV\u6ec7
p3493
I3423
sV\u8327
p3494
I2732
sV\u60a6
p3495
I1891
sV\u8429
p3496
I2976
sV\u592b
p3497
I693
sV\u6273
p3498
I2497
sV\u5f2f
p3499
I2060
sV\u7cae
p3500
I2254
sV\u51b0
p3501
I930
sV\u7533
p3502
I957
sV\u52b2
p3503
I1762
sV\u9635
p3504
I1097
sV\u571f
p3505
I710
sV\u9175
p3506
I2870
sV\u4eba
p3507
I4
sV\u873f
p3508
I4243
sV\u79c0
p3509
I909
sV\u5ac2
p3510
I2635
sV\u5e45
p3511
I827
sV\u5347
p3512
I469
sV\u8bd9
p3513
I3646
sV\u76ca
p3514
I716
sS'0U0U0'
p3515
I3349
sV\u4f4f
p3516
I467
sV\u964c
p3517
I1473
sV\u62d2
p3518
I1166
sV\u6655
p3519
I1892
sV\u67d4
p3520
I1849
sV\u5b57
p3521
I754
sV\u77dc
p3522
I4314
sV\u7eda
p3523
I2977
sV\u575f
p3524
I3648
sV\u8861
p3525
I1546
sV\u6dd1
p3526
I2859
sV\u8d63
p3527
I2978
sV\u7fe0
p3528
I2307
sV\u6367
p3529
I2136
sV\u6469
p3530
I1366
sV\u65e8
p3531
I1958
sV\u9a6d
p3532
I2733
sV\u51f0
p3533
I1959
sV\u9573
p3534
I3350
sV\u9675
p3535
I1923
sV\u907f
p3536
I940
sV\u8c79
p3537
I2411
sV\u8bd5
p3538
I459
sV\u817b
p3539
I2061
sV\u677f
p3540
I744
sV\u5b81
p3541
I584
sV\u7a00
p3542
I1850
sV\u5c04
p3543
I1140
sV\u5306
p3544
I2423
sV\u9556
p3545
I4100
sV\u4f0e
p3546
I3351
sV\u6210
p3547
I38
sV\u8693
p3548
I3649
sV\u9897
p3549
I1485
sV\u9f99
p3550
I723
sV\u5e18
p3551
I3352
sV\u529b
p3552
I123
sV\u7f00
p3553
I2547
sV\u949f
p3554
I727
sV\u971e
p3555
I2062
sV\u8ba1
p3556
I246
sV\u8587
p3557
I3141
sV\u6628
p3558
I611
sV\u7f2e
p3559
I3103
sV\u901e
p3560
I3684
sV\u5230
p3561
I28
sV\u5011
p3562
I3651
sV\u55b5
p3563
I1893
sV\u5434
p3564
I1406
sV\u8fb9
p3565
I487
sV\u6e38
p3566
I172
sV\u8d3a
p3567
I1732
sV\u9f8b
p3568
I3652
sV\u7ec3
p3569
I968
sV\u5942
p3570
I4245
sV\u5dc5
p3571
I2548
sV\u9648
p3572
I840
sV\u554a
p3573
I1198
sV\u884c
p3574
I29
sV\u4f4e
p3575
I457
sV\u7762
p3576
I3353
sV\u85d5
p3577
I2980
sV\u6454
p3578
I1629
sV\u7b56
p3579
I607
sV\u5fd9
p3580
I1205
sV\u51dd
p3581
I1924
sV\u505c
p3582
I495
sV\u54df
p3583
I2636
sV\u975e
p3584
I392
sV\u8be1
p3585
I3354
sV\u4ee3
p3586
I244
sV\u8eba
p3587
I2035
sV\u6c64
p3588
I1313
sV\u60e7
p3589
I1733
sV\u6668
p3590
I884
sV\u8d66
p3591
I4142
sV\u786c
p3592
I1433
sV\u7cef
p3593
I2420
sV\u7f6e
p3594
I734
sV\u7172
p3595
I3654
sV\u95f5
p3596
I3355
sV\u9885
p3597
I3655
sV\u6868
p3598
I4246
sV\u8ff9
p3599
I1110
sV\u607c
p3600
I2063
sV\u84ff
p3601
I4247
sV\u677e
p3602
I819
sV\u5e03
p3603
I181
sV\u5982
p3604
I132
sV\u5386
p3605
I530
sV\u7709
p3606
I2146
sV\u97ed
p3607
I3356
sV\u558a
p3608
I1672
sV\u690d
p3609
I1339
sV\u6c0f
p3610
I1960
sV\u6f8e
p3611
I2637
sV\u6311
p3612
I912
sV\u6613
p3613
I442
sV\u82ef
p3614
I3142
sV\u9e45
p3615
I2308
sV\u521b
p3616
I433
sV\u516e
p3617
I3656
sV\u709c
p3618
I4248
sV\u541f
p3619
I3143
sV\u8fc4
p3620
I2504
sV\u6b21
p3621
I141
sV\u9ea4
p3622
I4129
sV\u6e23
p3623
I2255
sV\u6d25
p3624
I991
sV\u6027
p3625
I236
sV\u66a8
p3626
I2099
sV\u85aa
p3627
I1131
sV\u592d
p3628
I3657
sV\u5fae
p3629
I350
sV\u9633
p3630
I428
sV\u51b2
p3631
I920
sV\u7535
p3632
I142
sS'UUUUUUUUUUU0'
p3633
I4249
sV\u6837
p3634
I252
sV\u8bb6
p3635
I2735
sV\u60bc
p3636
I2638
sV\u9a74
p3637
I2421
sV\u9b41
p3638
I4250
sV\u9e43
p3639
I3357
sV\u56ca
p3640
I2736
sV\u9cc4
p3641
I2737
sV\u9047
p3642
I592
sV\u9f20
p3643
I1712
sV\u76c8
p3644
I1818
sV\u75ca
p3645
I3722
sV\u7881
p3646
I4251
sV\u8fce
p3647
I792
sS'UUUUUUUUUUUU'
p3648
I1715
sV\u62d0
p3649
I2064
sV\u6653
p3650
I1652
sV\u61d2
p3651
I1819
sV\u8210
p3652
I3659
sV\u9ed8
p3653
I1141
sV\u725b
p3654
I986
sV\u6986
p3655
I2380
sV\u5cfb
p3656
I2366
sV\u745f
p3657
I2860
sV\u6dc6
p3658
I4252
sV\u65a7
p3659
I3375
sV\u996d
p3660
I935
sV\u5c6f
p3661
I2640
sV\u5371
p3662
I837
sV\u5e36
p3663
I4253
sV\u82d2
p3664
I3647
sV\u5575
p3665
I4254
sV\u8877
p3666
I1961
sV\u6328
p3667
I2981
sV\u7a81
p3668
I649
sV\u5501
p3669
I4255
sV\u9f83
p3670
I4256
sV\u5802
p3671
I1199
sV\u9187
p3672
I2641
sV\u7206
p3673
I847
sV\u5708
p3674
I1078
sV\u6b8b
p3675
I1263
sV\u540a
p3676
I2311
sV\u888d
p3677
I2982
sV\u4e0e
p3678
I98
sV\u6291
p3679
I1630
sV\u6012
p3680
I1763
sV\u6495
p3681
I2065
sS'0UU'
p3682
I2861
sV\u5e99
p3683
I1851
sV\u7f18
p3684
I1563
sV\u739b
p3685
I1925
sV\u5c1a
p3686
I1023
sV\u6b20
p3687
I1673
sV\u8fa3
p3688
I1450
sV\u8822
p3689
I2256
sV\u6ca5
p3690
I3145
sV\u8d24
p3691
I1926
sV\u61a7
p3692
I4257
sV\u6728
p3693
I960
sV\u5bab
p3694
I1230
sV\u5e2e
p3695
I715
sV\u52b1
p3696
I1183
sV\u77b3
p3697
I3660
sV\u9032
p3698
I4258
sV\u94b5
p3699
I3661
sV\u8e7f
p3700
I3358
sV\u9888
p3701
I1813
sV\u4f38
p3702
I1894
sV\u663e
p3703
I464
sV\u5ac1
p3704
I2100
sV\u5fc3
p3705
I79
sV\u9cc5
p3706
I3662
sV\u91c7
p3707
I745
sS'UUUUUUU0U0'
p3708
I3214
sV\u6bcb
p3709
I3663
sV\u544a
p3710
I327
sV\u68cd
p3711
I2422
sV\u4e4e
p3712
I854
sV\u82d1
p3713
I4259
sV\u6350
p3714
I1200
sV\u67d3
p3715
I923
sV\u6052
p3716
I1505
sV\u59d7
p3717
I4260
sV\u7ed9
p3718
I256
sV\u53db
p3719
I2642
sV\u515c
p3720
I2549
sV\u6ce5
p3721
I1631
sV\u8d64
p3722
I2257
sV\u81e7
p3723
I4261
sV\u6768
p3724
I1014
sV\u90e6
p3725
I4262
sV\u72f1
p3726
I1927
sV\u5370
p3727
I654
sV\u77f3
p3728
I655
sV\u7574
p3729
I3664
sV\u55e8
p3730
I2738
sV\u835f
p3731
I3359
sV\u722a
p3732
I3360
sV\u80fd
p3733
I34
sV\u817c
p3734
I4263
sV\u85ff
p3735
I4264
sV\u867e
p3736
I1935
sV\u5a01
p3737
I845
sV\u7b80
p3738
I820
sV\u5f03
p3739
I969
sV\u9882
p3740
I2473
sV\u5609
p3741
I1434
sV\u5782
p3742
I2474
sV\u948a
p3743
I4265
sV\u4e8e
p3744
I72
sV\u6211
p3745
I66
sV\u6390
p3746
I3146
sV\u8713
p3747
I4266
sV\u968b
p3748
I4267
sV\u7230
p3749
I4302
sS'0000000'
p3750
I2740
sV\u5f98
p3751
I3024
sV\u731b
p3752
I1564
sV\u901d
p3753
I1852
sV\u519c
p3754
I619
sV\u751f
p3755
I20
sV\u6a21
p3756
I671
sV\u6da4
p3757
I3147
sV\u6127
p3758
I2741
sV\u82a6
p3759
I2475
sV\u87a8
p3760
I3665
sV\u5b09
p3761
I3666
sV\u99ac
p3762
I4269
sV\u7d2f
p3763
I1254
sV\u7231
p3764
I293
sV\u73b0
p3765
I58
sV\u5733
p3766
I1389
sV\u50b2
p3767
I2258
sV\u5435
p3768
I2312
sV\u4e39
p3769
I1314
sV\u599e
p3770
I3667
sV\u803d
p3771
I2643
sV\u653f
p3772
I126
sV\u8446
p3773
I3668
sV\u5c45
p3774
I612
sS'UUUU000UUUUUUUUU000U'
p3775
I4270
sV\u884d
p3776
I2862
sV\u8d4f
p3777
I1214
sV\u4ece
p3778
I173
sV\u6251
p3779
I1820
sV\u63d0
p3780
I186
sV\u57a2
p3781
I3148
sV\u5957
p3782
I857
sV\u5ad6
p3783
I2582
sV\u5fd8
p3784
I1069
sV\u56de
p3785
I221
sV\u6a61
p3786
I3150
sV\u8be0
p3787
I2742
sV\u4f63
p3788
I2550
sS'UUUUUUUUUUUUUU0000'
p3789
I4271
sV\u6de4
p3790
I3151
sV\u6167
p3791
I1609
sV\u82e6
p3792
I958
sV\u59ec
p3793
I2743
sV\u7eee
p3794
I3669
sV\u53f0
p3795
I283
sV\u5773
p3796
I3670
sV\u6452
p3797
I3701
sV\u5475
p3798
I2026
sV\u95f4
p3799
I121
sV\u6977
p3800
I4272
sS'U0U0'
p3801
I3235
sV\u66fe
p3802
I531
sV\u5883
p3803
I518
sV\u5f02
p3804
I1015
sV\u5b85
p3805
I1367
sV\u5a04
p3806
I2983
sV\u7687
p3807
I1610
sV\u5506
p3808
I4274
sV\u9189
p3809
I1795
sV\u4e56
p3810
I2313
sV\u4f8d
p3811
I4275
sV\u690e
p3812
I2138
sV\u6591
p3813
I1962
sV\u6410
p3814
I4276
sV\u8712
p3815
I4277
sV\u8214
p3816
I3152
sV\u5e97
p3817
I560
sV\u5d16
p3818
I2367
sV\u9999
p3819
I471
sV\u6d85
p3820
I2209
sV\u949b
p3821
I4278
sV\u56d7
p3822
I4279
sV\u62d7
p3823
I3671
sV\u961c
p3824
I2984
sV\u529f
p3825
I521
sV\u6da1
p3826
I2863
sV\u8d31
p3827
I4280
sV\u61a9
p3828
I3361
sV\u6028
p3829
I1523
sV\u9cab
p3830
I3673
sV\u632a
p3831
I2331
sV\u7178
p3832
I4281
sV\u592e
p3833
I555
sV\u55b1
p3834
I3674
sV\u7430
p3835
I4282
sV\u70b3
p3836
I2744
sV\u9732
p3837
I755
sV\u6838
p3838
I910
sV\u6b3a
p3839
I2066
sV\u663c
p3840
I2745
sV\u62bf
p3841
I4283
sV\u813e
p3842
I2314
sV\u5c40
p3843
I250
sV\u7f42
p3844
I4284
sV\u96c7
p3845
I1853
sV\u5546
p3846
I232
sV\u51c9
p3847
I1264
sV\u998d
p3848
I4285
sV\u534a
p3849
I515
sV\u4e4c
p3850
I947
sV\u6254
p3851
I1513
sV\u90b8
p3852
I4286
sV\u5858
p3853
I1693
sV\u94db
p3854
I2864
sV\u90f8
p3855
I2424
sV\u7f20
p3856
I2560
sV\u52df
p3857
I1674
sV\u7c3f
p3858
I3014
sV\u6de1
p3859
I1351
sV\u6c60
p3860
I1184
sV\u68e3
p3861
I4287
sV\u63ba
p3862
I3362
sV\u8be5
p3863
I227
sS'U00U000'
p3864
I3979
sV\u6566
p3865
I1377
sV\u6068
p3866
I2259
sV\u5a76
p3867
I4288
sV\u6df3
p3868
I4289
sV\u7aef
p3869
I821
sV\u996e
p3870
I977
sS'UUUUUUUUU0000'
p3871
I3677
sV\u7470
p3872
I2551
sV\u7c41
p3873
I3678
sV\u9274
p3874
I1796
sV\u4ef7
p3875
I205
sV\u8d76
p3876
I898
sS'UU000'
p3877
I2260
sV\u62ff
p3878
I760
sV\u817e
p3879
I1231
sV\u5c80
p3880
I4290
sV\u5803
p3881
I4291
sV\u606a
p3882
I4292
sV\u7897
p3883
I1595
sV\u7586
p3884
I1150
sV\u7109
p3885
I2985
sV\u8c0b
p3886
I1675
sV\u4f0d
p3887
I1963
sV\u4e8c
p3888
I300
sV\u8511
p3889
I3494
sV\u5f99
p3890
I2986
sV\u7a79
p3891
I4293
sV\u6f9c
p3892
I3025
sV\u9898
p3893
I288
sV\u541b
p3894
I1378
sV\u5b9a
p3895
I128
sV\u969c
p3896
I1132
sV\u75ea
p3897
I2335
sV\u8d21
p3898
I1854
sV\u6627
p3899
I3363
sV\u60a8
p3900
I1010
sV\u63aa
p3901
I978
sV\u7f2d
p3902
I3153
sV\u7eac
p3903
I3154
sV\u59ae
p3904
I2644
sV\u5531
p3905
I1178
sV\u94b0
p3906
I3155
sS'0U0000'
p3907
I2746
sV\u8bba
p3908
I483
sV\u673d
p3909
I3364
sV\u623f
p3910
I240
sV\u61be
p3911
I2261
sV\u5ba1
p3912
I858
sV\u9b45
p3913
I1995
sV\u8df7
p3914
I4294
sV\u9647
p3915
I3680
sV\u5149
p3916
I387
sV\u70c8
p3917
I804
sV\u53ca
p3918
I258
sV\u4f4d
p3919
I190
sV\u96cc
p3920
I2987
sV\u6551
p3921
I489
sV\u87d2
p3922
I4295
sV\u6355
p3923
I1142
sV\u62d4
p3924
I1734
sS'0U000U'
p3925
I4296
sV\u98d8
p3926
I1821
sV\u545b
p3927
I3681
sV\u575d
p3928
I2027
sV\u6f20
p3929
I2137
sV\u6ee4
p3930
I2747
sV\u8c24
p3931
I4297
sV\u8d61
p3932
I3682
sS'UUU0U0U0'
p3933
I3365
sV\u8863
p3934
I815
sV\u6b65
p3935
I454
sV\u65e6
p3936
I1352
sV\u8169
p3937
I3470
sV\u60e8
p3938
I1797
sV\u63ea
p3939
I2988
sV\u5f6d
p3940
I1524
sV\u9a6f
p3941
I3683
sV\u94f0
p3942
I4298
sV\u5375
p3943
I2748
sS'UUUUUUUUUUUUUUUUUUUUUUUUUUUUUUU'
p3944
I4299
sV\u88f8
p3945
I1996
sV\u8bfa
p3946
I1016
sV\u66fc
p3947
I1468
sV\u627f
p3948
I764
sV\u81fe
p3949
I4300
sV\u9c81
p3950
I1206
sV\u5983
p3951
I2645
sV\u5e02
p3952
I32
sV\u7406
p3953
I113
sV\u7089
p3954
I1798
sV\u8d8b
p3955
I1486
sV\u520a
p3956
I1207
sV\u6491
p3957
I1694
sV\u6295
p3958
I330
sV\u5f97
p3959
I90
sV\u5c16
p3960
I1451
sV\u5899
p3961
I1469
sV\u7a1a
p3962
I3156
sV\u971c
p3963
I1964
sV\u539f
p3964
I289
sV\u9984
p3965
I2872
sV\u6ca1
p3966
I150
sV\u63b1
p3967
I4301
sV\u4e22
p3968
I1265
sV\u8426
p3969
I3829
sV\u80a9
p3970
I1855
sV\u622a
p3971
I994
sV\u5ead
p3972
I880
sV\u9edc
p3973
I4303
sV\u94b1
p3974
I452
sV\u7530
p3975
I944
sV\u51b3
p3976
I413
sV\u9632
p3977
I432
sV\u7334
p3978
I1928
sV\u75b5
p3979
I4304
sS'U0U'
p3980
I2102
sV\u7434
p3981
I1822
sV\u79c3
p3982
I3366
sV\u5e42
p3983
I4305
sV\u9b44
p3984
I2989
sV\u77c7
p3985
I4306
sV\u5446
p3986
I1589
sV\u755a
p3987
I4091
sV\u5148
p3988
I455
sV\u6dcb
p3989
I2309
sV\u524a
p3990
I2103
sV\u4ecd
p3991
I689
sV\u7063
p3992
I4307
sV\u6bcf
p3993
I231
sV\u6652
p3994
I1221
sV\u8354
p3995
I2553
sV\u5fd7
p3996
I724
sV\u4e38
p3997
I2140
sV\u98d9
p3998
I2262
sV\u75db
p3999
I1098
sV\u5a5a
p4000
I756
sS'U00'
p4001
I2088
sV\u6ce1
p4002
I1304
sV\u8d60
p4003
I1695
sV\u89e3
p4004
I257
sV\u6b64
p4005
I196
sV\u60e9
p4006
I1965
sV\u6168
p4007
I2210
sV\u5deb
p4008
I3158
sV\u626a
p4009
I4309
sV\u7eed
p4010
I414
sV\u5f6c
p4011
I2315
sV\u786e
p4012
I534
sV\u9570
p4013
I4310
sV\u51f3
p4014
I3686
sV\u9672
p4015
I4311
sV\u5374
p4016
I474
sV\u8ff7
p4017
I924
sV\u6c76
p4018
I3288
sV\u88f9
p4019
I2554
sV\u8015
p4020
I2749
sV\u85fb
p4021
I3159
sV\u973e
p4022
I2211
sV\u5b5a
p4023
I3480
sV\u5c01
p4024
I1111
sV\u6bc1
p4025
I1397
sV\u9e82
p4026
I4313
sV\u5a05
p4027
I2990
sV\u9707
p4028
I870
sV\u9009
p4029
I343
sV\u5188
p4030
I2750
sV\u6d0b
p4031
I1085
sV\u4e0d
p4032
I7
sV\u626f
p4033
I2647
sV\u5f17
p4034
I1856
sV\u9a9a
p4035
I2555
sV\u6da0
p4036
I3160
sV\u6ea2
p4037
I2263
sV\u8ba4
p4038
I285
sV\u61a8
p4039
I2364
sV\u7d2b
p4040
I1823
sS'000U00'
p4041
I2368
sV\u5e2d
p4042
I873
sV\u7235
p4043
I3687
sV\u6839
p4044
I613
sV\u7b75
p4045
I3594
sV\u653b
p4046
I1208
sV\u6eba
p4047
I2177
sV\u80be
p4048
I1735
sV\u5c41
p4049
I2369
sV\u5bc4
p4050
I1895
sV\u5747
p4051
I677
sV\u6458
p4052
I1968
sS'0000U0'
p4053
I2991
sV\u6d4b
p4054
I682
sV\u5662
p4055
I3161
sV\u751c
p4056
I1639
sV\u684c
p4057
I1470
sV\u9e7f
p4058
I1929
sV\u7f57
p4059
I552
sV\u7cd6
p4060
I1325
sV\u79d8
p4061
I1003
sV\u9c7b
p4062
I3828
sV\u6c61
p4063
I1012
sS'0U0U0U0'
p4064
I4315
sV\u6ee2
p4065
I4107
sV\u8be4
p4066
I4317
sV\u64e6
p4067
I1765
sV\u6069
p4068
I1368
sV\u9e6d
p4069
I3162
sV\u58ee
p4070
I1422
sV\u5471
p4071
I3688
sV\u75f0
p4072
I2836
sV\u5173
p4073
I108
sV\u76f2
p4074
I1896
sV\u7275
p4075
I1676
sV\u9a7f
p4076
I3163
sV\u867d
p4077
I1024
sV\u7f2b
p4078
I4354
sV\u5f81
p4079
I1017
sV\u7a83
p4080
I1677
sV\u9985
p4081
I2370
sV\u9685
p4082
I4318
sV\u5706
p4083
I1369
sV\u7389
p4084
I1209
sV\u4e8b
p4085
I89
sV\u710a
p4086
I3689
sV\u8c0c
p4087
I4320
sV\u6293
p4088
I979
sV\u6512
p4089
I2751
sS'000U00U'
p4090
I4321
sV\u5c97
p4091
I1280
sV\u7f16
p4092
I901
sV\u5b99
p4093
I2648
sV\u5a18
p4094
I1407
sV\u769b
p4095
I3916
sV\u591a
p4096
I31
sV\u559d
p4097
I921
sV\u82db
p4098
I3690
sV\u6fa1
p4099
I1897
sV\u6e20
p4100
I1679
sS'000000'
p4101
I2316
sV\u8d22
p4102
I561
sV\u6726
p4103
I4323
sV\u63a9
p4104
I2212
sV\u7eab
p4105
I3691
sV\u5c2c
p4106
I2425
sV\u56f9
p4107
I3593
sV\u52b3
p4108
I881
sV\u7532
p4109
I1340
sV\u51b5
p4110
I589
sV\u4f36
p4111
I4325
sV\u8bb9
p4112
I3370
sV\u575e
p4113
I2557
sV\u65bd
p4114
I485
sV\u80bf
p4115
I2067
sV\u7fc1
p4116
I2371
sV\u7be1
p4117
I3249
sV\u6346
p4118
I2649
sV\u54c7
p4119
I2558
sV\u5746
p4120
I4326
sV\u53c9
p4121
I2650
sV\u7248
p4122
I717
sV\u4ecb
p4123
I971
sV\u6eb6
p4124
I3379
sV\u8c4c
p4125
I3692
sV\u67d1
p4126
I2866
sV\u8650
p4127
I1930
sV\u62d3
p4128
I2028
sV\u8054
p4129
I249
sV\u7cd7
p4130
I4328
sV\u76db
p4131
I1031
sV\u745c
p4132
I2752
sV\u70df
p4133
I1004
sV\u535e
p4134
I4329
sV\u4fe1
p4135
I164
sV\u4e60
p4136
I506
sV\u8d62
p4137
I1408
sV\u50e7
p4138
I3371
sV\u7490
p4139
I3693
sV\u75bc
p4140
I1782
sS'000U000'
p4141
I2753
sV\u77e9
p4142
I2992
sV\u9074
p4143
I4330
sV\u9668
p4144
I4331
sV\u9968
p4145
I2867
sV\u9a84
p4146
I2552
sV\u5a03
p4147
I1341
sV\u556a
p4148
I3234
sV\u9884
p4149
I418
sV\u5288
p4150
I2993
sV\u4e0b
p4151
I46
sV\u718a
p4152
I1005
sS'U0'
p4153
I1342
sV\u680f
p4154
I1452
sV\u586c
p4155
I3694
sV\u6115
p4156
I4333
sV\u6094
p4157
I1766
sV\u7b19
p4158
I4334
sV\u7a98
p4159
I3695
sV\u561b
p4160
I2426
sV\u6f6e
p4161
I1094
sV\u901f
p4162
I398
sV\u8925
p4163
I3696
sV\u88a4
p4164
I4335
sV\u8427
p4165
I2104
sV\u8270
p4166
I1778
sV\u503e
p4167
I1780
sV\u76c6
p4168
I1824
sV\u5d2d
p4169
I3697
sS'00U0UUUUUUUUUUUUUUUUUUUUU'
p4170
I4336
sV\u75b2
p4171
I1716
sV\u8c37
p4172
I1104
sV\u73c8
p4173
I4337
sV\u5556
p4174
I4244
sV\u853d
p4175
I2476
sV\u64bc
p4176
I2264
sV\u803f
p4177
I3164
sS'U0U0U0'
p4178
I3820
sV\u5349
p4179
I2868
sV\u72c8
p4180
I3373
sV\u4e4b
p4181
I124
sV\u91ca
p4182
I1121
sV\u6ccc
p4183
I3165
sV\u6dcc
p4184
I4338
sV\u6751
p4185
I476
sV\u6253
p4186
I204
sV\u6155
p4187
I1994
sV\u9965
p4188
I2453
sV\u5b59
p4189
I1186
sV\u9ad8
p4190
I56
sV\u59da
p4191
I2427
sV\u74dc
p4192
I1220
sV\u88e4
p4193
I1566
sV\u6467
p4194
I2651
sS'UU'
p4195
I271
sV\u62e8
p4196
I1680
sV\u9e6b
p4197
I4339
sV\u81ea
p4198
I47
sV\u7bee
p4199
I1525
sV\u56f0
p4200
I875
sV\u95f2
p4201
I1611
sV\u5175
p4202
I1116
sV\u4ff6
p4203
I3698
sV\u6b79
p4204
I3166
sV\u6055
p4205
I2995
sS'UUUUUUUUUU000'
p4206
I4340
sV\u5f00
p4207
I53
sV\u5b83
p4208
I423
sV\u916a
p4209
I3329
sV\u5885
p4210
I2317
sV\u5904
p4211
I241
sV\u5587
p4212
I2871
sV\u6a80
p4213
I3946
sV\u5308
p4214
I2996
sV\u4f8b
p4215
I893
sV\u900a
p4216
I1632
sV\u8c8d
p4217
I4342
sV\u5a55
p4218
I3842
sV\u6691
p4219
I1717
sV\u8393
p4220
I2428
sV\u93af
p4221
I3699
sV\u5e16
p4222
I2213
sV\u9a99
p4223
I4343
sV\u781a
p4224
I3374
sV\u775b
p4225
I1487
sV\u719f
p4226
I1160
sV\u4ea1
p4227
I712
sV\u4f20
p4228
I336
sV\u8c22
p4229
I1079
sV\u9b54
p4230
I1565
sV\u8328
p4231
I1997
sV\u602a
p4232
I1488
sV\u5cad
p4233
I1591
sV\u76b1
p4234
I2754
sV\u5730
p4235
I33
sV\u4e32
p4236
I1770
sV\u90b5
p4237
I2214
sV\u853c
p4238
I4344
sV\u6c26
p4239
I3597
sV\u5c42
p4240
I707
sV\u78c5
p4241
I2997
sV\u5944
p4242
I3167
sV\u75c7
p4243
I903
sV\u9646
p4244
I925
sV\u52c9
p4245
I2652
sV\u5348
p4246
I427
sV\u8db8
p4247
I4346
sV\u8d4c
p4248
I1966
sV\u6750
p4249
I1011
sV\u9a76
p4250
I1007
sV\u60d5
p4251
I2318
sV\u8154
p4252
I2561
sV\u7ad9
p4253
I328
sV\u5b58
p4254
I546
sV\u77db
p4255
I2029
sV\u94dd
p4256
I2755
sV\u955c
p4257
I1036
sV\u6ee1
p4258
I578
sV\u4f60
p4259
I43
sV\u8be3
p4260
I4347
sV\u65e7
p4261
I1133
sV\u6666
p4262
I3702
sV\u62e9
p4263
I822
sV\u9ebd
p4264
I4348
sV\u5feb
p4265
I339
sV\u806a
p4266
I2068
sV\u79ef
p4267
I746
sV\u9a6e
p4268
I4349
sV\u76f1
p4269
I3168
sV\u7269
p4270
I177
sV\u53f3
p4271
I850
sV\u5192
p4272
I1255
sV\u50f5
p4273
I2373
sV\u5174
p4274
I782
sV\u6df7
p4275
I1327
sV\u8e76
p4276
I3703
sV\u61ff
p4277
I3704
sV\u627e
p4278
I587
sV\u5e01
p4279
I776
sV\u5f80
p4280
I511
sV\u7b03
p4281
I4350
sV\u5c82
p4282
I3169
sV\u5984
p4283
I2781
sV\u5507
p4284
I2562
sV\u9686
p4285
I1633
sV\u708a
p4286
I3377
sV\u8c0d
p4287
I2215
sV\u6d8c
p4288
I1898
sV\u5631
p4289
I2564
sV\u54b1
p4290
I2563
sV\u8611
p4291
I3378
sV\u6790
p4292
I1161
sV\u6492
p4293
I1998
sV\u6015
p4294
I1047
sV\u6194
p4295
I3705
sV\u7480
p4296
I4351
sV\u5b98
p4297
I440
sV\u789a
p4298
I4352
sV\u541d
p4299
I4353
sV\u559c
p4300
I683
sV\u529e
p4301
I358
sV\u6e21
p4302
I1799
sV\u4fa0
p4303
I2653
sV\u6b23
p4304
I1681
sV\u4ee4
p4305
I730
sV\u812b
p4306
I3935
sV\u63a8
p4307
I408
sV\u794e
p4308
I2947
sV\u80aa
p4309
I1967
sV\u592f
p4310
I4355
sV\u9631
p4311
I2559
sV\u77b0
p4312
I3170
sV\u94f2
p4313
I3172
sV\u91b4
p4314
I3706
sV\u8d37
p4315
I948
sV\u7948
p4316
I2832
sV\u8364
p4317
I3171
sV\u8bb8
p4318
I491
sV\u873b
p4319
I4356
sV\u843d
p4320
I593
sS'UUU00UUUUUUUUU'
p4321
I4357
sV\u613f
p4322
I705
sV\u81f4
p4323
I478
sV\u7e41
p4324
I1370
sV\u7845
p4325
I2374
sV\u6d77
p4326
I104
sV\u9547
p4327
I678
sV\u96c6
p4328
I342
sV\u53c8
p4329
I425
sV\u90ca
p4330
I2429
sS'UUUUUUUUUUUUU'
p4331
I2141
sV\u8dcc
p4332
I786
sV\u8651
p4333
I1143
sV\u67d0
p4334
I484
sV\u7239
p4335
I2266
sS'U'
p4336
I1
sV\u83cf
p4337
I4358
sV\u5ed6
p4338
I2478
sV\u8d25
p4339
I1006
sV\u575b
p4340
I1353
sV\u98da
p4341
I3707
sV\u79c6
p4342
I3380
sV\u7ca4
p4343
I2852
sV\u4e61
p4344
I859
sV\u90dc
p4345
I3910
sV\u6b63
p4346
I135
sV\u6ce2
p4347
I814
sV\u8865
p4348
I787
sV\u6d50
p4349
I3598
sV\u6269
p4350
I1222
sV\u996f
p4351
I4360
sV\u5671
p4352
I3381
sV\u7729
p4353
I4361
sV\u5373
p4354
I562
sV\u54f2
p4355
I2477
sV\u7075
p4356
I1095
sV\u8d77
p4357
I94
sV\u4ef6
p4358
I302
sV\u8a79
p4359
I2998
sV\u8bf8
p4360
I1861
sV\u62fe
p4361
I1999
sV\u817f
p4362
I1409
sV\u5b54
p4363
I1547
saI140
a.